; ModuleID = '/data/skamat/Github/VivadoHLS/Correlator/solution1/.autopilot/db/a.o.bc'
target datalayout = "e-p:64:64:64-i1:8:8-i8:8:8-i16:16:16-i32:32:32-i64:64:64-f32:32:32-f64:64:64-v64:64:64-v128:128:128-a0:0:64-s0:64:64-f80:128:128-n8:16:32:64-S128"
target triple = "x86_64-unknown-linux-gnu"

%class.ssdm_global_array_ClusterFinderpp0ccaplinecc = type {}
%"class.std::ios_base::Init" = type {}
%struct.ap_ufixed = type { %struct.ap_fixed_base }
%struct.ap_fixed_base = type { %struct.ssdm_int }
%struct.ssdm_int = type { i10 }
%struct.ap_ufixed.0 = type { %struct.ap_fixed_base.1 }
%struct.ap_fixed_base.1 = type { %struct.ssdm_int.2 }
%struct.ssdm_int.2 = type { i16 }
%"class.std::basic_ostream" = type { i32 (...)**, %"class.std::basic_ios" }
%"class.std::basic_ios" = type { %"class.std::ios_base", %"class.std::basic_ostream"*, i8, i1, %"class.std::basic_streambuf"*, %"class.std::ctype"*, %"class.std::num_put"*, %"class.std::num_get"* }
%"class.std::ios_base" = type { i32 (...)**, i64, i64, i17, i17, i17, %"struct.std::ios_base::_Callback_list"*, %"struct.std::ios_base::_Words", [8 x %"struct.std::ios_base::_Words"], i32, %"struct.std::ios_base::_Words"*, %"class.std::locale" }
%"struct.std::ios_base::_Callback_list" = type { %"struct.std::ios_base::_Callback_list"*, void (i2, %"class.std::ios_base"*, i32)*, i32, i32 }
%"struct.std::ios_base::_Words" = type { i8*, i64 }
%"class.std::locale" = type { %"class.std::locale::_Impl"* }
%"class.std::locale::_Impl" = type { i32, %"class.std::locale::facet"**, i64, %"class.std::locale::facet"**, i8** }
%"class.std::locale::facet" = type { i32 (...)**, i32 }
%"class.std::basic_streambuf" = type { i32 (...)**, i8*, i8*, i8*, i8*, i8*, i8*, %"class.std::locale" }
%"class.std::ctype" = type { %"class.std::locale::facet", %struct.__locale_struct*, i1, i32*, i32*, i16*, i8, [256 x i8], [256 x i8], i8 }
%struct.__locale_struct = type { [13 x %struct.__locale_data*], i16*, i32*, i32*, [13 x i8*] }
%struct.__locale_data = type opaque
%"class.std::num_put" = type { %"class.std::locale::facet" }
%"class.std::num_get" = type { %"class.std::locale::facet" }
%class.ssdm_global_array_ClusterTrackLinkerpp0ccaplinecc = type {}
%"struct.std::nothrow_t" = type {}
%"class.std::locale::id" = type { i64 }
%"class.std::basic_istream" = type { i32 (...)**, i64, %"class.std::basic_ios" }
%"class.std::basic_istream.9" = type { i32 (...)**, i64, %"class.std::basic_ios.11" }
%"class.std::basic_ios.11" = type { %"class.std::ios_base", %"class.std::basic_ostream.12"*, i32, i1, %"class.std::basic_streambuf.13"*, %"class.std::ctype.14"*, %"class.std::num_put.15"*, %"class.std::num_get.16"* }
%"class.std::basic_ostream.12" = type { i32 (...)**, %"class.std::basic_ios.11" }
%"class.std::basic_streambuf.13" = type { i32 (...)**, i32*, i32*, i32*, i32*, i32*, i32*, %"class.std::locale" }
%"class.std::ctype.14" = type { %"class.std::__ctype_abstract_base", %struct.__locale_struct*, i1, [128 x i8], [256 x i32], [16 x i16], [16 x i64] }
%"class.std::__ctype_abstract_base" = type { %"class.std::locale::facet" }
%"class.std::num_put.15" = type { %"class.std::locale::facet" }
%"class.std::num_get.16" = type { %"class.std::locale::facet" }
%struct.ap_fixed_base.3 = type { %struct.ssdm_int.4 }
%struct.ssdm_int.4 = type { i26 }
%struct.ap_fixed_base.5 = type { %struct.ssdm_int.6 }
%struct.ssdm_int.6 = type { i32 }
%struct.ap_fixed = type { %struct.ap_fixed_base.7 }
%struct.ap_fixed_base.7 = type { %struct.ssdm_int.8 }
%struct.ssdm_int.8 = type { i10 }
%struct.ap_fixed_base.21 = type { %struct.ssdm_int.2 }
%struct.ap_fixed_base.18 = type { %struct.ssdm_int.19 }
%struct.ssdm_int.19 = type { i32 }
%struct.ap_int_base = type { %struct.ssdm_int.20 }
%struct.ssdm_int.20 = type { i18 }
%struct.ap_int_base.22 = type { %struct.ssdm_int.6 }
%struct.ap_int_base.23 = type { %struct.ssdm_int.4 }
%struct.ap_int_base.24 = type { %struct.ssdm_int.25 }
%struct.ssdm_int.25 = type { i64 }
%struct.ap_int_base.26 = type { %struct.ssdm_int.27 }
%struct.ssdm_int.27 = type { i12 }
%struct.ap_int_base.28 = type { %struct.ssdm_int.29 }
%struct.ssdm_int.29 = type { i11 }
%struct.ap_int_base.30 = type { %struct.ssdm_int.31 }
%struct.ssdm_int.31 = type { i33 }
%struct.ap_int_base.32 = type { %struct.ssdm_int.33 }
%struct.ssdm_int.33 = type { i54 }
%struct.ap_int_base.34 = type { %struct.ssdm_int.35 }
%struct.ssdm_int.35 = type { i55 }
%union.anon = type { i64 }
%struct.ap_int_base.38 = type { %struct.ssdm_int.19 }
%struct.ap_int_base.36 = type { %struct.ssdm_int.37 }
%struct.ssdm_int.37 = type { i1 }
%union.anon.39 = type { i64 }

@.str = private unnamed_addr constant [1 x i8] zeroinitializer, align 1 ; [#uses=1 type=[1 x i8]*]
@.str1 = private unnamed_addr constant [9 x i8] c"COMPLETE\00", align 1 ; [#uses=1 type=[9 x i8]*]
@.str2 = private unnamed_addr constant [12 x i8] c"hls_label_1\00", align 1 ; [#uses=1 type=[12 x i8]*]
@.str3 = private unnamed_addr constant [12 x i8] c"hls_label_2\00", align 1 ; [#uses=1 type=[12 x i8]*]
@.str4 = private unnamed_addr constant [12 x i8] c"hls_label_5\00", align 1 ; [#uses=1 type=[12 x i8]*]
@.str5 = private unnamed_addr constant [12 x i8] c"hls_label_3\00", align 1 ; [#uses=1 type=[12 x i8]*]
@.str6 = private unnamed_addr constant [12 x i8] c"hls_label_4\00", align 1 ; [#uses=1 type=[12 x i8]*]
@.str7 = private unnamed_addr constant [12 x i8] c"hls_label_0\00", align 1 ; [#uses=1 type=[12 x i8]*]
@.str8 = private unnamed_addr constant [12 x i8] c"hls_label_6\00", align 1 ; [#uses=1 type=[12 x i8]*]
@.str9 = private unnamed_addr constant [12 x i8] c"hls_label_8\00", align 1 ; [#uses=1 type=[12 x i8]*]
@.str10 = private unnamed_addr constant [12 x i8] c"hls_label_7\00", align 1 ; [#uses=1 type=[12 x i8]*]
@.str11 = private unnamed_addr constant [13 x i8] c"hls_label_10\00", align 1 ; [#uses=1 type=[13 x i8]*]
@.str12 = private unnamed_addr constant [12 x i8] c"hls_label_9\00", align 1 ; [#uses=1 type=[12 x i8]*]
@_ZL21ssdm_global_array_ins = internal global %class.ssdm_global_array_ClusterFinderpp0ccaplinecc zeroinitializer, align 1 ; [#uses=1 type=%class.ssdm_global_array_ClusterFinderpp0ccaplinecc*]
@_ZL16NCaloLayer1Cards = internal constant i16 18, align 2 ; [#uses=1 type=i16*]
@_ZL14NCaloLayer1Eta = internal constant i16 17, align 2 ; [#uses=1 type=i16*]
@_ZL14NCaloLayer1Phi = internal constant i16 4, align 2 ; [#uses=1 type=i16*]
@_ZL18NCrystalsPerEtaPhi = internal constant i16 5, align 2 ; [#uses=1 type=i16*]
@_ZL14NCrystalsInPhi = internal constant i16 360, align 2 ; [#uses=1 type=i16*]
@_ZL14NCrystalsInEta = internal constant i16 85, align 2 ; [#uses=1 type=i16*]
@llvm.global_ctors = appending global [2 x { i32, void ()* }] [{ i32, void ()* } { i32 65535, void ()* @_GLOBAL__I_a }, { i32, void ()* } { i32 65535, void ()* @_GLOBAL__I_a34 }] ; [#uses=0 type=[2 x { i32, void ()* }]*]
@_ZStL8__ioinit = internal global %"class.std::ios_base::Init" zeroinitializer, align 1 ; [#uses=2 type=%"class.std::ios_base::Init"*]
@_ZL14conv_track_eta = internal global %struct.ap_ufixed zeroinitializer, align 2 ; [#uses=3 type=%struct.ap_ufixed*]
@_ZL14conv_track_phi = internal global %struct.ap_ufixed.0 zeroinitializer, align 2 ; [#uses=3 type=%struct.ap_ufixed.0*]
@.str13 = private unnamed_addr constant [1 x i8] zeroinitializer, align 1 ; [#uses=1 type=[1 x i8]*]
@.str314 = private unnamed_addr constant [9 x i8] c"COMPLETE\00", align 1 ; [#uses=1 type=[9 x i8]*]
@.str415 = private unnamed_addr constant [12 x i8] c"hls_label_2\00", align 1 ; [#uses=1 type=[12 x i8]*]
@.str516 = private unnamed_addr constant [12 x i8] c"hls_label_3\00", align 1 ; [#uses=1 type=[12 x i8]*]
@.str617 = private unnamed_addr constant [9 x i8] c"complete\00", align 1 ; [#uses=1 type=[9 x i8]*]
@_ZSt4cout = external global %"class.std::basic_ostream" ; [#uses=9 type=%"class.std::basic_ostream"*]
@.str718 = private unnamed_addr constant [10 x i8] c"Max_track\00", align 1 ; [#uses=1 type=[10 x i8]*]
@.str819 = private unnamed_addr constant [10 x i8] c"track_eta\00", align 1 ; [#uses=1 type=[10 x i8]*]
@.str920 = private unnamed_addr constant [10 x i8] c"track_phi\00", align 1 ; [#uses=1 type=[10 x i8]*]
@.str1021 = private unnamed_addr constant [9 x i8] c"clus_eta\00", align 1 ; [#uses=1 type=[9 x i8]*]
@.str1122 = private unnamed_addr constant [9 x i8] c"clus_phi\00", align 1 ; [#uses=1 type=[9 x i8]*]
@.str1223 = private unnamed_addr constant [12 x i8] c"hls_label_4\00", align 1 ; [#uses=1 type=[12 x i8]*]
@.str1324 = private unnamed_addr constant [13 x i8] c"track_peak_e\00", align 1 ; [#uses=1 type=[13 x i8]*]
@.str14 = private unnamed_addr constant [13 x i8] c"track_peak_p\00", align 1 ; [#uses=1 type=[13 x i8]*]
@.str15 = private unnamed_addr constant [4 x i8] c"eta\00", align 1 ; [#uses=1 type=[4 x i8]*]
@.str16 = private unnamed_addr constant [4 x i8] c"Phi\00", align 1 ; [#uses=1 type=[4 x i8]*]
@.str17 = private unnamed_addr constant [11 x i8] c"clus_trial\00", align 1 ; [#uses=1 type=[11 x i8]*]
@.str18 = private unnamed_addr constant [12 x i8] c"hls_label_1\00", align 1 ; [#uses=1 type=[12 x i8]*]
@.str19 = private unnamed_addr constant [12 x i8] c"hls_label_0\00", align 1 ; [#uses=1 type=[12 x i8]*]
@_ZL21ssdm_global_array_ins25 = internal global %class.ssdm_global_array_ClusterTrackLinkerpp0ccaplinecc zeroinitializer, align 1 ; [#uses=1 type=%class.ssdm_global_array_ClusterTrackLinkerpp0ccaplinecc*]
@_ZN9__gnu_cxx24__numeric_traits_integer11__is_signedE = external constant i1 ; [#uses=0 type=i1*]
@_ZN9__gnu_cxx24__numeric_traits_integer8__digitsE = external constant i32 ; [#uses=0 type=i32*]
@_ZN9__gnu_cxx25__numeric_traits_floating14__max_digits10E = external constant i32 ; [#uses=0 type=i32*]
@_ZN9__gnu_cxx25__numeric_traits_floating11__is_signedE = external constant i1 ; [#uses=0 type=i1*]
@_ZN9__gnu_cxx25__numeric_traits_floating10__digits10E = external constant i32 ; [#uses=0 type=i32*]
@_ZN9__gnu_cxx25__numeric_traits_floating16__max_exponent10E = external constant i32 ; [#uses=0 type=i32*]
@__daylight = external global i32                 ; [#uses=0 type=i32*]
@__timezone = external global i64                 ; [#uses=0 type=i64*]
@daylight = external global i32                   ; [#uses=0 type=i32*]
@timezone = external global i64                   ; [#uses=0 type=i64*]
@getdate_err = external global i32                ; [#uses=0 type=i32*]
@__environ = external global i8**                 ; [#uses=0 type=i8***]
@environ = external global i8**                   ; [#uses=0 type=i8***]
@optarg = external global i8*                     ; [#uses=0 type=i8**]
@optind = external global i32                     ; [#uses=0 type=i32*]
@opterr = external global i32                     ; [#uses=0 type=i32*]
@optopt = external global i32                     ; [#uses=0 type=i32*]
@_ZSt7nothrow = external global %"struct.std::nothrow_t" ; [#uses=0 type=%"struct.std::nothrow_t"*]
@_ZNSt6locale10_S_classicE = external global %"class.std::locale::_Impl"* ; [#uses=0 type=%"class.std::locale::_Impl"**]
@_ZNSt6locale9_S_globalE = external global %"class.std::locale::_Impl"* ; [#uses=0 type=%"class.std::locale::_Impl"**]
@_ZNSt6locale7_S_onceE = external global i32      ; [#uses=0 type=i32*]
@_ZNSt6locale5facet11_S_c_localeE = external global %struct.__locale_struct* ; [#uses=0 type=%struct.__locale_struct**]
@_ZNSt6locale5facet7_S_onceE = external global i32 ; [#uses=0 type=i32*]
@_ZNSt6locale2id11_S_refcountE = external global i32 ; [#uses=0 type=i32*]
@_ZNSt7collate2idE = external global %"class.std::locale::id" ; [#uses=0 type=%"class.std::locale::id"*]
@_ZNSt8ios_base4Init11_S_refcountE = external global i32 ; [#uses=0 type=i32*]
@_ZNSt8ios_base4Init20_S_synced_with_stdioE = external global i1 ; [#uses=0 type=i1*]
@_ZNSt5ctype2idE = external global %"class.std::locale::id" ; [#uses=0 type=%"class.std::locale::id"*]
@_ZNSt5ctypeIcE2idE = external global %"class.std::locale::id" ; [#uses=0 type=%"class.std::locale::id"*]
@_ZNSt5ctypeIwE2idE = external global %"class.std::locale::id" ; [#uses=0 type=%"class.std::locale::id"*]
@_ZNSt10__num_base12_S_atoms_outE = external global i8* ; [#uses=0 type=i8**]
@_ZNSt10__num_base11_S_atoms_inE = external global i8* ; [#uses=0 type=i8**]
@_ZNSt8numpunct2idE = external global %"class.std::locale::id" ; [#uses=0 type=%"class.std::locale::id"*]
@_ZNSt7num_get2idE = external global %"class.std::locale::id" ; [#uses=0 type=%"class.std::locale::id"*]
@_ZNSt7num_put2idE = external global %"class.std::locale::id" ; [#uses=0 type=%"class.std::locale::id"*]
@_ZSt3cin = external global %"class.std::basic_istream" ; [#uses=0 type=%"class.std::basic_istream"*]
@_ZSt4cerr = external global %"class.std::basic_ostream" ; [#uses=0 type=%"class.std::basic_ostream"*]
@_ZSt4clog = external global %"class.std::basic_ostream" ; [#uses=0 type=%"class.std::basic_ostream"*]
@_ZSt4wcin = external global %"class.std::basic_istream.9" ; [#uses=0 type=%"class.std::basic_istream.9"*]
@_ZSt5wcout = external global %"class.std::basic_ostream.12" ; [#uses=0 type=%"class.std::basic_ostream.12"*]
@_ZSt5wcerr = external global %"class.std::basic_ostream.12" ; [#uses=0 type=%"class.std::basic_ostream.12"*]
@_ZSt5wclog = external global %"class.std::basic_ostream.12" ; [#uses=0 type=%"class.std::basic_ostream.12"*]
@signgam = external global i32                    ; [#uses=0 type=i32*]
@_ZN13ap_fixed_baseILi16ELi2ELb0EL9ap_q_mode5EL9ap_o_mode3ELi0EE5omodeE = external constant i3 ; [#uses=1 type=i3*]
@_ZN13ap_fixed_baseILi16ELi2ELb0EL9ap_q_mode5EL9ap_o_mode3ELi0EE5qmodeE = external constant i3 ; [#uses=1 type=i3*]
@_ZN13ap_fixed_baseILi16ELi2ELb0EL9ap_q_mode5EL9ap_o_mode3ELi0EE6iwidthE = external constant i32 ; [#uses=1 type=i32*]
@_ZN13ap_fixed_baseILi16ELi2ELb0EL9ap_q_mode5EL9ap_o_mode3ELi0EE5widthE = external constant i32 ; [#uses=1 type=i32*]
@_ZZN13ap_fixed_baseILi16ELi2ELb0EL9ap_q_mode5EL9ap_o_mode3ELi0EEC1EdE10AllOnesInt = linkonce_odr global i32 -1, align 4 ; [#uses=1 type=i32*]
@_ZN13ap_fixed_baseILi10ELi2ELb0EL9ap_q_mode5EL9ap_o_mode3ELi0EE5omodeE = external constant i3 ; [#uses=1 type=i3*]
@_ZN13ap_fixed_baseILi10ELi2ELb0EL9ap_q_mode5EL9ap_o_mode3ELi0EE5qmodeE = external constant i3 ; [#uses=1 type=i3*]
@_ZN13ap_fixed_baseILi10ELi2ELb0EL9ap_q_mode5EL9ap_o_mode3ELi0EE6iwidthE = external constant i32 ; [#uses=1 type=i32*]
@_ZN13ap_fixed_baseILi10ELi2ELb0EL9ap_q_mode5EL9ap_o_mode3ELi0EE5widthE = external constant i32 ; [#uses=1 type=i32*]
@_ZZN13ap_fixed_baseILi10ELi2ELb0EL9ap_q_mode5EL9ap_o_mode3ELi0EEC1EdE10AllOnesInt = linkonce_odr global i32 -1, align 4 ; [#uses=1 type=i32*]
@_ZL16NCaloLayer1Cards26 = internal constant i16 18, align 2 ; [#uses=1 type=i16*]
@_ZL14NCaloLayer1Eta27 = internal constant i16 17, align 2 ; [#uses=1 type=i16*]
@_ZL14NCaloLayer1Phi28 = internal constant i16 4, align 2 ; [#uses=1 type=i16*]
@_ZL18NCrystalsPerEtaPhi29 = internal constant i16 5, align 2 ; [#uses=1 type=i16*]
@_ZL14NCrystalsInPhi30 = internal constant i16 360, align 2 ; [#uses=1 type=i16*]
@_ZL14NCrystalsInEta31 = internal constant i16 85, align 2 ; [#uses=1 type=i16*]
@_ZL9MaxTracks = internal constant i16 10, align 2 ; [#uses=1 type=i16*]
@_ZL10MaxTrackPT = internal constant i16 -1, align 2 ; [#uses=1 type=i16*]
@_ZL11MaxTrackEta = internal constant i16 2958, align 2 ; [#uses=1 type=i16*]
@_ZL16conv_cluster_eta = internal constant i16 34, align 2 ; [#uses=1 type=i16*]
@_ZL11MaxTrackPhi = internal constant i16 -2705, align 2 ; [#uses=1 type=i16*]
@_ZL16conv_cluster_phi = internal constant i16 174, align 2 ; [#uses=1 type=i16*]
@_ZL18MaxNeutralClusters = internal constant i16 68, align 2 ; [#uses=1 type=i16*]

; [#uses=2]
define zeroext i16 @_Z13getPeakBinOf5Ptt(i16* %et, i16 zeroext %etSum) nounwind uwtable {
  %1 = alloca i16*, align 8                       ; [#uses=12 type=i16**]
  %2 = alloca i16, align 2                        ; [#uses=6 type=i16*]
  %iEtSum = alloca i16, align 2                   ; [#uses=5 type=i16*]
  %iAve = alloca i16, align 2                     ; [#uses=7 type=i16*]
  store i16* %et, i16** %1, align 8
  call void @llvm.dbg.declare(metadata !{i16** %1}, metadata !9664), !dbg !9665 ; [debug line = 3:33] [debug variable = et]
  store i16 %etSum, i16* %2, align 2
  call void @llvm.dbg.declare(metadata !{i16* %2}, metadata !9666), !dbg !9667 ; [debug line = 3:49] [debug variable = etSum]
  %3 = load i16** %1, align 8, !dbg !9668         ; [#uses=1 type=i16*] [debug line = 3:57]
  call void (...)* @_ssdm_SpecArrayDimSize(i16* %3, i32 5) nounwind, !dbg !9668 ; [debug line = 3:57]
  call void (...)* @_ssdm_op_SpecPipeline(i32 6, i32 1, i32 1, i32 0, i8* getelementptr inbounds ([1 x i8]* @.str, i32 0, i32 0)) nounwind, !dbg !9670 ; [debug line = 4:1]
  %4 = load i16** %1, align 8, !dbg !9671         ; [#uses=1 type=i16*] [debug line = 5:1]
  call void (...)* @_ssdm_SpecArrayPartition(i16* %4, i32 0, i8* getelementptr inbounds ([9 x i8]* @.str1, i32 0, i32 0), i32 0, i8* getelementptr inbounds ([1 x i8]* @.str, i32 0, i32 0)) nounwind, !dbg !9671 ; [debug line = 5:1]
  call void @llvm.dbg.declare(metadata !{i16* %iEtSum}, metadata !9672), !dbg !9673 ; [debug line = 6:11] [debug variable = iEtSum]
  %5 = load i16** %1, align 8, !dbg !9674         ; [#uses=1 type=i16*] [debug line = 11:33]
  %6 = getelementptr inbounds i16* %5, i64 0, !dbg !9674 ; [#uses=1 type=i16*] [debug line = 11:33]
  %7 = load i16* %6, align 2, !dbg !9674          ; [#uses=1 type=i16] [debug line = 11:33]
  %8 = zext i16 %7 to i32, !dbg !9674             ; [#uses=1 type=i32] [debug line = 11:33]
  %9 = ashr i32 %8, 1, !dbg !9674                 ; [#uses=1 type=i32] [debug line = 11:33]
  %10 = load i16** %1, align 8, !dbg !9674        ; [#uses=1 type=i16*] [debug line = 11:33]
  %11 = getelementptr inbounds i16* %10, i64 1, !dbg !9674 ; [#uses=1 type=i16*] [debug line = 11:33]
  %12 = load i16* %11, align 2, !dbg !9674        ; [#uses=1 type=i16] [debug line = 11:33]
  %13 = zext i16 %12 to i32, !dbg !9674           ; [#uses=1 type=i32] [debug line = 11:33]
  %14 = ashr i32 %13, 1, !dbg !9674               ; [#uses=1 type=i32] [debug line = 11:33]
  %15 = add nsw i32 %9, %14, !dbg !9674           ; [#uses=1 type=i32] [debug line = 11:33]
  %16 = load i16** %1, align 8, !dbg !9674        ; [#uses=1 type=i16*] [debug line = 11:33]
  %17 = getelementptr inbounds i16* %16, i64 1, !dbg !9674 ; [#uses=1 type=i16*] [debug line = 11:33]
  %18 = load i16* %17, align 2, !dbg !9674        ; [#uses=1 type=i16] [debug line = 11:33]
  %19 = zext i16 %18 to i32, !dbg !9674           ; [#uses=1 type=i32] [debug line = 11:33]
  %20 = add nsw i32 %15, %19, !dbg !9674          ; [#uses=1 type=i32] [debug line = 11:33]
  %21 = load i16** %1, align 8, !dbg !9674        ; [#uses=1 type=i16*] [debug line = 11:33]
  %22 = getelementptr inbounds i16* %21, i64 2, !dbg !9674 ; [#uses=1 type=i16*] [debug line = 11:33]
  %23 = load i16* %22, align 2, !dbg !9674        ; [#uses=1 type=i16] [debug line = 11:33]
  %24 = zext i16 %23 to i32, !dbg !9674           ; [#uses=1 type=i32] [debug line = 11:33]
  %25 = ashr i32 %24, 1, !dbg !9674               ; [#uses=1 type=i32] [debug line = 11:33]
  %26 = add nsw i32 %20, %25, !dbg !9674          ; [#uses=1 type=i32] [debug line = 11:33]
  %27 = load i16** %1, align 8, !dbg !9674        ; [#uses=1 type=i16*] [debug line = 11:33]
  %28 = getelementptr inbounds i16* %27, i64 2, !dbg !9674 ; [#uses=1 type=i16*] [debug line = 11:33]
  %29 = load i16* %28, align 2, !dbg !9674        ; [#uses=1 type=i16] [debug line = 11:33]
  %30 = zext i16 %29 to i32, !dbg !9674           ; [#uses=1 type=i32] [debug line = 11:33]
  %31 = shl i32 %30, 1, !dbg !9674                ; [#uses=1 type=i32] [debug line = 11:33]
  %32 = add nsw i32 %26, %31, !dbg !9674          ; [#uses=1 type=i32] [debug line = 11:33]
  %33 = load i16** %1, align 8, !dbg !9674        ; [#uses=1 type=i16*] [debug line = 11:33]
  %34 = getelementptr inbounds i16* %33, i64 3, !dbg !9674 ; [#uses=1 type=i16*] [debug line = 11:33]
  %35 = load i16* %34, align 2, !dbg !9674        ; [#uses=1 type=i16] [debug line = 11:33]
  %36 = zext i16 %35 to i32, !dbg !9674           ; [#uses=1 type=i32] [debug line = 11:33]
  %37 = shl i32 %36, 2, !dbg !9674                ; [#uses=1 type=i32] [debug line = 11:33]
  %38 = add nsw i32 %32, %37, !dbg !9674          ; [#uses=1 type=i32] [debug line = 11:33]
  %39 = load i16** %1, align 8, !dbg !9674        ; [#uses=1 type=i16*] [debug line = 11:33]
  %40 = getelementptr inbounds i16* %39, i64 3, !dbg !9674 ; [#uses=1 type=i16*] [debug line = 11:33]
  %41 = load i16* %40, align 2, !dbg !9674        ; [#uses=1 type=i16] [debug line = 11:33]
  %42 = zext i16 %41 to i32, !dbg !9674           ; [#uses=1 type=i32] [debug line = 11:33]
  %43 = ashr i32 %42, 1, !dbg !9674               ; [#uses=1 type=i32] [debug line = 11:33]
  %44 = sub nsw i32 %38, %43, !dbg !9674          ; [#uses=1 type=i32] [debug line = 11:33]
  %45 = load i16** %1, align 8, !dbg !9674        ; [#uses=1 type=i16*] [debug line = 11:33]
  %46 = getelementptr inbounds i16* %45, i64 4, !dbg !9674 ; [#uses=1 type=i16*] [debug line = 11:33]
  %47 = load i16* %46, align 2, !dbg !9674        ; [#uses=1 type=i16] [debug line = 11:33]
  %48 = zext i16 %47 to i32, !dbg !9674           ; [#uses=1 type=i32] [debug line = 11:33]
  %49 = shl i32 %48, 2, !dbg !9674                ; [#uses=1 type=i32] [debug line = 11:33]
  %50 = add nsw i32 %44, %49, !dbg !9674          ; [#uses=1 type=i32] [debug line = 11:33]
  %51 = load i16** %1, align 8, !dbg !9674        ; [#uses=1 type=i16*] [debug line = 11:33]
  %52 = getelementptr inbounds i16* %51, i64 4, !dbg !9674 ; [#uses=1 type=i16*] [debug line = 11:33]
  %53 = load i16* %52, align 2, !dbg !9674        ; [#uses=1 type=i16] [debug line = 11:33]
  %54 = zext i16 %53 to i32, !dbg !9674           ; [#uses=1 type=i32] [debug line = 11:33]
  %55 = ashr i32 %54, 1, !dbg !9674               ; [#uses=1 type=i32] [debug line = 11:33]
  %56 = add nsw i32 %50, %55, !dbg !9674          ; [#uses=1 type=i32] [debug line = 11:33]
  %57 = trunc i32 %56 to i16, !dbg !9674          ; [#uses=1 type=i16] [debug line = 11:33]
  store i16 %57, i16* %iEtSum, align 2, !dbg !9674 ; [debug line = 11:33]
  call void @llvm.dbg.declare(metadata !{i16* %iAve}, metadata !9675), !dbg !9676 ; [debug line = 12:12] [debug variable = iAve]
  store i16 -16657, i16* %iAve, align 2, !dbg !9677 ; [debug line = 12:25]
  %58 = load i16* %iEtSum, align 2, !dbg !9678    ; [#uses=1 type=i16] [debug line = 13:3]
  %59 = zext i16 %58 to i32, !dbg !9678           ; [#uses=1 type=i32] [debug line = 13:3]
  %60 = load i16* %2, align 2, !dbg !9678         ; [#uses=1 type=i16] [debug line = 13:3]
  %61 = zext i16 %60 to i32, !dbg !9678           ; [#uses=1 type=i32] [debug line = 13:3]
  %62 = icmp sle i32 %59, %61, !dbg !9678         ; [#uses=1 type=i1] [debug line = 13:3]
  br i1 %62, label %63, label %64, !dbg !9678     ; [debug line = 13:3]

; <label>:63                                      ; preds = %0
  store i16 0, i16* %iAve, align 2, !dbg !9679    ; [debug line = 13:24]
  br label %95, !dbg !9679                        ; [debug line = 13:24]

; <label>:64                                      ; preds = %0
  %65 = load i16* %iEtSum, align 2, !dbg !9680    ; [#uses=1 type=i16] [debug line = 14:8]
  %66 = zext i16 %65 to i32, !dbg !9680           ; [#uses=1 type=i32] [debug line = 14:8]
  %67 = load i16* %2, align 2, !dbg !9680         ; [#uses=1 type=i16] [debug line = 14:8]
  %68 = zext i16 %67 to i32, !dbg !9680           ; [#uses=1 type=i32] [debug line = 14:8]
  %69 = shl i32 %68, 1, !dbg !9680                ; [#uses=1 type=i32] [debug line = 14:8]
  %70 = icmp sle i32 %66, %69, !dbg !9680         ; [#uses=1 type=i1] [debug line = 14:8]
  br i1 %70, label %71, label %72, !dbg !9680     ; [debug line = 14:8]

; <label>:71                                      ; preds = %64
  store i16 1, i16* %iAve, align 2, !dbg !9681    ; [debug line = 14:35]
  br label %94, !dbg !9681                        ; [debug line = 14:35]

; <label>:72                                      ; preds = %64
  %73 = load i16* %iEtSum, align 2, !dbg !9682    ; [#uses=1 type=i16] [debug line = 15:8]
  %74 = zext i16 %73 to i32, !dbg !9682           ; [#uses=1 type=i32] [debug line = 15:8]
  %75 = load i16* %2, align 2, !dbg !9682         ; [#uses=1 type=i16] [debug line = 15:8]
  %76 = zext i16 %75 to i32, !dbg !9682           ; [#uses=1 type=i32] [debug line = 15:8]
  %77 = load i16* %2, align 2, !dbg !9682         ; [#uses=1 type=i16] [debug line = 15:8]
  %78 = zext i16 %77 to i32, !dbg !9682           ; [#uses=1 type=i32] [debug line = 15:8]
  %79 = shl i32 %78, 1, !dbg !9682                ; [#uses=1 type=i32] [debug line = 15:8]
  %80 = add nsw i32 %76, %79, !dbg !9682          ; [#uses=1 type=i32] [debug line = 15:8]
  %81 = icmp sle i32 %74, %80, !dbg !9682         ; [#uses=1 type=i1] [debug line = 15:8]
  br i1 %81, label %82, label %83, !dbg !9682     ; [debug line = 15:8]

; <label>:82                                      ; preds = %72
  store i16 2, i16* %iAve, align 2, !dbg !9683    ; [debug line = 15:45]
  br label %93, !dbg !9683                        ; [debug line = 15:45]

; <label>:83                                      ; preds = %72
  %84 = load i16* %iEtSum, align 2, !dbg !9684    ; [#uses=1 type=i16] [debug line = 16:8]
  %85 = zext i16 %84 to i32, !dbg !9684           ; [#uses=1 type=i32] [debug line = 16:8]
  %86 = load i16* %2, align 2, !dbg !9684         ; [#uses=1 type=i16] [debug line = 16:8]
  %87 = zext i16 %86 to i32, !dbg !9684           ; [#uses=1 type=i32] [debug line = 16:8]
  %88 = shl i32 %87, 2, !dbg !9684                ; [#uses=1 type=i32] [debug line = 16:8]
  %89 = icmp sle i32 %85, %88, !dbg !9684         ; [#uses=1 type=i1] [debug line = 16:8]
  br i1 %89, label %90, label %91, !dbg !9684     ; [debug line = 16:8]

; <label>:90                                      ; preds = %83
  store i16 3, i16* %iAve, align 2, !dbg !9685    ; [debug line = 16:35]
  br label %92, !dbg !9685                        ; [debug line = 16:35]

; <label>:91                                      ; preds = %83
  store i16 4, i16* %iAve, align 2, !dbg !9686    ; [debug line = 17:8]
  br label %92

; <label>:92                                      ; preds = %91, %90
  br label %93

; <label>:93                                      ; preds = %92, %82
  br label %94

; <label>:94                                      ; preds = %93, %71
  br label %95

; <label>:95                                      ; preds = %94, %63
  %96 = load i16* %iAve, align 2, !dbg !9687      ; [#uses=1 type=i16] [debug line = 18:3]
  ret i16 %96, !dbg !9687                         ; [debug line = 18:3]
}

; [#uses=337]
declare void @llvm.dbg.declare(metadata, metadata) nounwind readnone

; [#uses=19]
declare void @_ssdm_SpecArrayDimSize(...) nounwind

; [#uses=5]
declare void @_ssdm_op_SpecPipeline(...) nounwind

; [#uses=29]
declare void @_ssdm_SpecArrayPartition(...) nounwind

; [#uses=1]
define zeroext i1 @_Z18getClustersInTowerPA5_tPtS1_S1_S1_([5 x i16]* %crystals, i16* %peakEta, i16* %peakPhi, i16* %towerET, i16* %clusterET) nounwind uwtable {
  %1 = alloca [5 x i16]*, align 8                 ; [#uses=6 type=[5 x i16]**]
  %2 = alloca i16*, align 8                       ; [#uses=3 type=i16**]
  %3 = alloca i16*, align 8                       ; [#uses=3 type=i16**]
  %4 = alloca i16*, align 8                       ; [#uses=5 type=i16**]
  %5 = alloca i16*, align 8                       ; [#uses=3 type=i16**]
  %phiStripSum = alloca [5 x i16], align 2        ; [#uses=5 type=[5 x i16]*]
  %phi = alloca i32, align 4                      ; [#uses=7 type=i32*]
  %eta = alloca i32, align 4                      ; [#uses=5 type=i32*]
  %etaStripSum = alloca [5 x i16], align 2        ; [#uses=4 type=[5 x i16]*]
  %eta1 = alloca i32, align 4                     ; [#uses=7 type=i32*]
  %phi2 = alloca i32, align 4                     ; [#uses=5 type=i32*]
  %phi3 = alloca i32, align 4                     ; [#uses=5 type=i32*]
  %dEta = alloca i32, align 4                     ; [#uses=5 type=i32*]
  %dPhi = alloca i32, align 4                     ; [#uses=5 type=i32*]
  %phi4 = alloca i32, align 4                     ; [#uses=4 type=i32*]
  %eta5 = alloca i32, align 4                     ; [#uses=4 type=i32*]
  %thisCrystalET = alloca i16, align 2            ; [#uses=3 type=i16*]
  store [5 x i16]* %crystals, [5 x i16]** %1, align 8
  call void @llvm.dbg.declare(metadata !{[5 x i16]** %1}, metadata !9688), !dbg !9689 ; [debug line = 21:34] [debug variable = crystals]
  store i16* %peakEta, i16** %2, align 8
  call void @llvm.dbg.declare(metadata !{i16** %2}, metadata !9690), !dbg !9691 ; [debug line = 22:35] [debug variable = peakEta]
  store i16* %peakPhi, i16** %3, align 8
  call void @llvm.dbg.declare(metadata !{i16** %3}, metadata !9692), !dbg !9693 ; [debug line = 23:35] [debug variable = peakPhi]
  store i16* %towerET, i16** %4, align 8
  call void @llvm.dbg.declare(metadata !{i16** %4}, metadata !9694), !dbg !9695 ; [debug line = 24:35] [debug variable = towerET]
  store i16* %clusterET, i16** %5, align 8
  call void @llvm.dbg.declare(metadata !{i16** %5}, metadata !9696), !dbg !9697 ; [debug line = 25:35] [debug variable = clusterET]
  %6 = load [5 x i16]** %1, align 8, !dbg !9698   ; [#uses=1 type=[5 x i16]*] [debug line = 25:47]
  call void (...)* @_ssdm_SpecArrayDimSize([5 x i16]* %6, i32 5) nounwind, !dbg !9698 ; [debug line = 25:47]
  call void (...)* @_ssdm_op_SpecPipeline(i32 6, i32 1, i32 1, i32 0, i8* getelementptr inbounds ([1 x i8]* @.str, i32 0, i32 0)) nounwind, !dbg !9700 ; [debug line = 26:1]
  %7 = load [5 x i16]** %1, align 8, !dbg !9701   ; [#uses=1 type=[5 x i16]*] [debug line = 27:1]
  call void (...)* @_ssdm_SpecArrayPartition([5 x i16]* %7, i32 0, i8* getelementptr inbounds ([9 x i8]* @.str1, i32 0, i32 0), i32 0, i8* getelementptr inbounds ([1 x i8]* @.str, i32 0, i32 0)) nounwind, !dbg !9701 ; [debug line = 27:1]
  call void @llvm.dbg.declare(metadata !{[5 x i16]* %phiStripSum}, metadata !9702), !dbg !9703 ; [debug line = 28:11] [debug variable = phiStripSum]
  %8 = getelementptr inbounds [5 x i16]* %phiStripSum, i32 0, i32 0, !dbg !9704 ; [#uses=1 type=i16*] [debug line = 29:1]
  call void (...)* @_ssdm_SpecArrayPartition(i16* %8, i32 0, i8* getelementptr inbounds ([9 x i8]* @.str1, i32 0, i32 0), i32 0, i8* getelementptr inbounds ([1 x i8]* @.str, i32 0, i32 0)) nounwind, !dbg !9704 ; [debug line = 29:1]
  call void @llvm.dbg.declare(metadata !{i32* %phi}, metadata !9705), !dbg !9707 ; [debug line = 30:10] [debug variable = phi]
  store i32 0, i32* %phi, align 4, !dbg !9708     ; [debug line = 30:17]
  br label %9, !dbg !9708                         ; [debug line = 30:17]

; <label>:9                                       ; preds = %40, %0
  %10 = load i32* %phi, align 4, !dbg !9708       ; [#uses=1 type=i32] [debug line = 30:17]
  %11 = icmp slt i32 %10, 5, !dbg !9708           ; [#uses=1 type=i1] [debug line = 30:17]
  br i1 %11, label %12, label %43, !dbg !9708     ; [debug line = 30:17]

; <label>:12                                      ; preds = %9
  call void (...)* @_ssdm_RegionBegin(i8* getelementptr inbounds ([12 x i8]* @.str2, i32 0, i32 0)) nounwind, !dbg !9709 ; [debug line = 30:53]
  call void (...)* @_ssdm_Unroll(i32 0, i32 0, i32 0, i8* getelementptr inbounds ([1 x i8]* @.str, i32 0, i32 0)) nounwind, !dbg !9711 ; [debug line = 31:1]
  %13 = load i32* %phi, align 4, !dbg !9712       ; [#uses=1 type=i32] [debug line = 32:2]
  %14 = sext i32 %13 to i64, !dbg !9712           ; [#uses=1 type=i64] [debug line = 32:2]
  %15 = getelementptr inbounds [5 x i16]* %phiStripSum, i32 0, i64 %14, !dbg !9712 ; [#uses=1 type=i16*] [debug line = 32:2]
  store i16 0, i16* %15, align 2, !dbg !9712      ; [debug line = 32:2]
  call void @llvm.dbg.declare(metadata !{i32* %eta}, metadata !9713), !dbg !9715 ; [debug line = 33:13] [debug variable = eta]
  store i32 0, i32* %eta, align 4, !dbg !9716     ; [debug line = 33:20]
  br label %16, !dbg !9716                        ; [debug line = 33:20]

; <label>:16                                      ; preds = %36, %12
  %17 = load i32* %eta, align 4, !dbg !9716       ; [#uses=1 type=i32] [debug line = 33:20]
  %18 = icmp slt i32 %17, 5, !dbg !9716           ; [#uses=1 type=i1] [debug line = 33:20]
  br i1 %18, label %19, label %39, !dbg !9716     ; [debug line = 33:20]

; <label>:19                                      ; preds = %16
  call void (...)* @_ssdm_RegionBegin(i8* getelementptr inbounds ([12 x i8]* @.str3, i32 0, i32 0)) nounwind, !dbg !9717 ; [debug line = 33:56]
  call void (...)* @_ssdm_Unroll(i32 0, i32 0, i32 0, i8* getelementptr inbounds ([1 x i8]* @.str, i32 0, i32 0)) nounwind, !dbg !9719 ; [debug line = 34:1]
  %20 = load i32* %phi, align 4, !dbg !9720       ; [#uses=1 type=i32] [debug line = 35:2]
  %21 = sext i32 %20 to i64, !dbg !9720           ; [#uses=1 type=i64] [debug line = 35:2]
  %22 = load i32* %eta, align 4, !dbg !9720       ; [#uses=1 type=i32] [debug line = 35:2]
  %23 = sext i32 %22 to i64, !dbg !9720           ; [#uses=1 type=i64] [debug line = 35:2]
  %24 = load [5 x i16]** %1, align 8, !dbg !9720  ; [#uses=1 type=[5 x i16]*] [debug line = 35:2]
  %25 = getelementptr inbounds [5 x i16]* %24, i64 %23, !dbg !9720 ; [#uses=1 type=[5 x i16]*] [debug line = 35:2]
  %26 = getelementptr inbounds [5 x i16]* %25, i32 0, i64 %21, !dbg !9720 ; [#uses=1 type=i16*] [debug line = 35:2]
  %27 = load i16* %26, align 2, !dbg !9720        ; [#uses=1 type=i16] [debug line = 35:2]
  %28 = zext i16 %27 to i32, !dbg !9720           ; [#uses=1 type=i32] [debug line = 35:2]
  %29 = load i32* %phi, align 4, !dbg !9720       ; [#uses=1 type=i32] [debug line = 35:2]
  %30 = sext i32 %29 to i64, !dbg !9720           ; [#uses=1 type=i64] [debug line = 35:2]
  %31 = getelementptr inbounds [5 x i16]* %phiStripSum, i32 0, i64 %30, !dbg !9720 ; [#uses=2 type=i16*] [debug line = 35:2]
  %32 = load i16* %31, align 2, !dbg !9720        ; [#uses=1 type=i16] [debug line = 35:2]
  %33 = zext i16 %32 to i32, !dbg !9720           ; [#uses=1 type=i32] [debug line = 35:2]
  %34 = add nsw i32 %33, %28, !dbg !9720          ; [#uses=1 type=i32] [debug line = 35:2]
  %35 = trunc i32 %34 to i16, !dbg !9720          ; [#uses=1 type=i16] [debug line = 35:2]
  store i16 %35, i16* %31, align 2, !dbg !9720    ; [debug line = 35:2]
  call void (...)* @_ssdm_RegionEnd(i8* getelementptr inbounds ([12 x i8]* @.str3, i32 0, i32 0)) nounwind, !dbg !9721 ; [debug line = 36:5]
  br label %36, !dbg !9721                        ; [debug line = 36:5]

; <label>:36                                      ; preds = %19
  %37 = load i32* %eta, align 4, !dbg !9722       ; [#uses=1 type=i32] [debug line = 33:48]
  %38 = add nsw i32 %37, 1, !dbg !9722            ; [#uses=1 type=i32] [debug line = 33:48]
  store i32 %38, i32* %eta, align 4, !dbg !9722   ; [debug line = 33:48]
  br label %16, !dbg !9722                        ; [debug line = 33:48]

; <label>:39                                      ; preds = %16
  call void (...)* @_ssdm_RegionEnd(i8* getelementptr inbounds ([12 x i8]* @.str2, i32 0, i32 0)) nounwind, !dbg !9723 ; [debug line = 37:3]
  br label %40, !dbg !9723                        ; [debug line = 37:3]

; <label>:40                                      ; preds = %39
  %41 = load i32* %phi, align 4, !dbg !9724       ; [#uses=1 type=i32] [debug line = 30:45]
  %42 = add nsw i32 %41, 1, !dbg !9724            ; [#uses=1 type=i32] [debug line = 30:45]
  store i32 %42, i32* %phi, align 4, !dbg !9724   ; [debug line = 30:45]
  br label %9, !dbg !9724                         ; [debug line = 30:45]

; <label>:43                                      ; preds = %9
  call void @llvm.dbg.declare(metadata !{[5 x i16]* %etaStripSum}, metadata !9725), !dbg !9726 ; [debug line = 38:12] [debug variable = etaStripSum]
  %44 = getelementptr inbounds [5 x i16]* %etaStripSum, i32 0, i32 0, !dbg !9727 ; [#uses=1 type=i16*] [debug line = 39:1]
  call void (...)* @_ssdm_SpecArrayPartition(i16* %44, i32 0, i8* getelementptr inbounds ([9 x i8]* @.str1, i32 0, i32 0), i32 0, i8* getelementptr inbounds ([1 x i8]* @.str, i32 0, i32 0)) nounwind, !dbg !9727 ; [debug line = 39:1]
  call void @llvm.dbg.declare(metadata !{i32* %eta1}, metadata !9728), !dbg !9730 ; [debug line = 40:10] [debug variable = eta]
  store i32 0, i32* %eta1, align 4, !dbg !9731    ; [debug line = 40:17]
  br label %45, !dbg !9731                        ; [debug line = 40:17]

; <label>:45                                      ; preds = %76, %43
  %46 = load i32* %eta1, align 4, !dbg !9731      ; [#uses=1 type=i32] [debug line = 40:17]
  %47 = icmp slt i32 %46, 5, !dbg !9731           ; [#uses=1 type=i1] [debug line = 40:17]
  br i1 %47, label %48, label %79, !dbg !9731     ; [debug line = 40:17]

; <label>:48                                      ; preds = %45
  call void (...)* @_ssdm_RegionBegin(i8* getelementptr inbounds ([12 x i8]* @.str4, i32 0, i32 0)) nounwind, !dbg !9732 ; [debug line = 40:53]
  call void (...)* @_ssdm_Unroll(i32 0, i32 0, i32 0, i8* getelementptr inbounds ([1 x i8]* @.str, i32 0, i32 0)) nounwind, !dbg !9734 ; [debug line = 41:1]
  %49 = load i32* %eta1, align 4, !dbg !9735      ; [#uses=1 type=i32] [debug line = 42:2]
  %50 = sext i32 %49 to i64, !dbg !9735           ; [#uses=1 type=i64] [debug line = 42:2]
  %51 = getelementptr inbounds [5 x i16]* %etaStripSum, i32 0, i64 %50, !dbg !9735 ; [#uses=1 type=i16*] [debug line = 42:2]
  store i16 0, i16* %51, align 2, !dbg !9735      ; [debug line = 42:2]
  call void @llvm.dbg.declare(metadata !{i32* %phi2}, metadata !9736), !dbg !9738 ; [debug line = 43:13] [debug variable = phi]
  store i32 0, i32* %phi2, align 4, !dbg !9739    ; [debug line = 43:20]
  br label %52, !dbg !9739                        ; [debug line = 43:20]

; <label>:52                                      ; preds = %72, %48
  %53 = load i32* %phi2, align 4, !dbg !9739      ; [#uses=1 type=i32] [debug line = 43:20]
  %54 = icmp slt i32 %53, 5, !dbg !9739           ; [#uses=1 type=i1] [debug line = 43:20]
  br i1 %54, label %55, label %75, !dbg !9739     ; [debug line = 43:20]

; <label>:55                                      ; preds = %52
  call void (...)* @_ssdm_RegionBegin(i8* getelementptr inbounds ([12 x i8]* @.str5, i32 0, i32 0)) nounwind, !dbg !9740 ; [debug line = 43:56]
  call void (...)* @_ssdm_Unroll(i32 0, i32 0, i32 0, i8* getelementptr inbounds ([1 x i8]* @.str, i32 0, i32 0)) nounwind, !dbg !9742 ; [debug line = 44:1]
  %56 = load i32* %phi2, align 4, !dbg !9743      ; [#uses=1 type=i32] [debug line = 45:2]
  %57 = sext i32 %56 to i64, !dbg !9743           ; [#uses=1 type=i64] [debug line = 45:2]
  %58 = load i32* %eta1, align 4, !dbg !9743      ; [#uses=1 type=i32] [debug line = 45:2]
  %59 = sext i32 %58 to i64, !dbg !9743           ; [#uses=1 type=i64] [debug line = 45:2]
  %60 = load [5 x i16]** %1, align 8, !dbg !9743  ; [#uses=1 type=[5 x i16]*] [debug line = 45:2]
  %61 = getelementptr inbounds [5 x i16]* %60, i64 %59, !dbg !9743 ; [#uses=1 type=[5 x i16]*] [debug line = 45:2]
  %62 = getelementptr inbounds [5 x i16]* %61, i32 0, i64 %57, !dbg !9743 ; [#uses=1 type=i16*] [debug line = 45:2]
  %63 = load i16* %62, align 2, !dbg !9743        ; [#uses=1 type=i16] [debug line = 45:2]
  %64 = zext i16 %63 to i32, !dbg !9743           ; [#uses=1 type=i32] [debug line = 45:2]
  %65 = load i32* %eta1, align 4, !dbg !9743      ; [#uses=1 type=i32] [debug line = 45:2]
  %66 = sext i32 %65 to i64, !dbg !9743           ; [#uses=1 type=i64] [debug line = 45:2]
  %67 = getelementptr inbounds [5 x i16]* %etaStripSum, i32 0, i64 %66, !dbg !9743 ; [#uses=2 type=i16*] [debug line = 45:2]
  %68 = load i16* %67, align 2, !dbg !9743        ; [#uses=1 type=i16] [debug line = 45:2]
  %69 = zext i16 %68 to i32, !dbg !9743           ; [#uses=1 type=i32] [debug line = 45:2]
  %70 = add nsw i32 %69, %64, !dbg !9743          ; [#uses=1 type=i32] [debug line = 45:2]
  %71 = trunc i32 %70 to i16, !dbg !9743          ; [#uses=1 type=i16] [debug line = 45:2]
  store i16 %71, i16* %67, align 2, !dbg !9743    ; [debug line = 45:2]
  call void (...)* @_ssdm_RegionEnd(i8* getelementptr inbounds ([12 x i8]* @.str5, i32 0, i32 0)) nounwind, !dbg !9744 ; [debug line = 46:5]
  br label %72, !dbg !9744                        ; [debug line = 46:5]

; <label>:72                                      ; preds = %55
  %73 = load i32* %phi2, align 4, !dbg !9745      ; [#uses=1 type=i32] [debug line = 43:48]
  %74 = add nsw i32 %73, 1, !dbg !9745            ; [#uses=1 type=i32] [debug line = 43:48]
  store i32 %74, i32* %phi2, align 4, !dbg !9745  ; [debug line = 43:48]
  br label %52, !dbg !9745                        ; [debug line = 43:48]

; <label>:75                                      ; preds = %52
  call void (...)* @_ssdm_RegionEnd(i8* getelementptr inbounds ([12 x i8]* @.str4, i32 0, i32 0)) nounwind, !dbg !9746 ; [debug line = 47:3]
  br label %76, !dbg !9746                        ; [debug line = 47:3]

; <label>:76                                      ; preds = %75
  %77 = load i32* %eta1, align 4, !dbg !9747      ; [#uses=1 type=i32] [debug line = 40:45]
  %78 = add nsw i32 %77, 1, !dbg !9747            ; [#uses=1 type=i32] [debug line = 40:45]
  store i32 %78, i32* %eta1, align 4, !dbg !9747  ; [debug line = 40:45]
  br label %45, !dbg !9747                        ; [debug line = 40:45]

; <label>:79                                      ; preds = %45
  %80 = load i16** %4, align 8, !dbg !9748        ; [#uses=1 type=i16*] [debug line = 49:3]
  store i16 0, i16* %80, align 2, !dbg !9748      ; [debug line = 49:3]
  call void @llvm.dbg.declare(metadata !{i32* %phi3}, metadata !9749), !dbg !9751 ; [debug line = 50:11] [debug variable = phi]
  store i32 0, i32* %phi3, align 4, !dbg !9752    ; [debug line = 50:18]
  br label %81, !dbg !9752                        ; [debug line = 50:18]

; <label>:81                                      ; preds = %95, %79
  %82 = load i32* %phi3, align 4, !dbg !9752      ; [#uses=1 type=i32] [debug line = 50:18]
  %83 = icmp slt i32 %82, 5, !dbg !9752           ; [#uses=1 type=i1] [debug line = 50:18]
  br i1 %83, label %84, label %98, !dbg !9752     ; [debug line = 50:18]

; <label>:84                                      ; preds = %81
  call void (...)* @_ssdm_RegionBegin(i8* getelementptr inbounds ([12 x i8]* @.str6, i32 0, i32 0)) nounwind, !dbg !9753 ; [debug line = 50:54]
  call void (...)* @_ssdm_Unroll(i32 0, i32 0, i32 0, i8* getelementptr inbounds ([1 x i8]* @.str, i32 0, i32 0)) nounwind, !dbg !9755 ; [debug line = 51:1]
  %85 = load i32* %phi3, align 4, !dbg !9756      ; [#uses=1 type=i32] [debug line = 52:2]
  %86 = sext i32 %85 to i64, !dbg !9756           ; [#uses=1 type=i64] [debug line = 52:2]
  %87 = getelementptr inbounds [5 x i16]* %phiStripSum, i32 0, i64 %86, !dbg !9756 ; [#uses=1 type=i16*] [debug line = 52:2]
  %88 = load i16* %87, align 2, !dbg !9756        ; [#uses=1 type=i16] [debug line = 52:2]
  %89 = zext i16 %88 to i32, !dbg !9756           ; [#uses=1 type=i32] [debug line = 52:2]
  %90 = load i16** %4, align 8, !dbg !9756        ; [#uses=2 type=i16*] [debug line = 52:2]
  %91 = load i16* %90, align 2, !dbg !9756        ; [#uses=1 type=i16] [debug line = 52:2]
  %92 = zext i16 %91 to i32, !dbg !9756           ; [#uses=1 type=i32] [debug line = 52:2]
  %93 = add nsw i32 %92, %89, !dbg !9756          ; [#uses=1 type=i32] [debug line = 52:2]
  %94 = trunc i32 %93 to i16, !dbg !9756          ; [#uses=1 type=i16] [debug line = 52:2]
  store i16 %94, i16* %90, align 2, !dbg !9756    ; [debug line = 52:2]
  call void (...)* @_ssdm_RegionEnd(i8* getelementptr inbounds ([12 x i8]* @.str6, i32 0, i32 0)) nounwind, !dbg !9757 ; [debug line = 53:3]
  br label %95, !dbg !9757                        ; [debug line = 53:3]

; <label>:95                                      ; preds = %84
  %96 = load i32* %phi3, align 4, !dbg !9758      ; [#uses=1 type=i32] [debug line = 50:46]
  %97 = add nsw i32 %96, 1, !dbg !9758            ; [#uses=1 type=i32] [debug line = 50:46]
  store i32 %97, i32* %phi3, align 4, !dbg !9758  ; [debug line = 50:46]
  br label %81, !dbg !9758                        ; [debug line = 50:46]

; <label>:98                                      ; preds = %81
  %99 = getelementptr inbounds [5 x i16]* %etaStripSum, i32 0, i32 0, !dbg !9759 ; [#uses=1 type=i16*] [debug line = 54:14]
  %100 = load i16** %4, align 8, !dbg !9759       ; [#uses=1 type=i16*] [debug line = 54:14]
  %101 = load i16* %100, align 2, !dbg !9759      ; [#uses=1 type=i16] [debug line = 54:14]
  %102 = call zeroext i16 @_Z13getPeakBinOf5Ptt(i16* %99, i16 zeroext %101), !dbg !9759 ; [#uses=1 type=i16] [debug line = 54:14]
  %103 = load i16** %2, align 8, !dbg !9759       ; [#uses=1 type=i16*] [debug line = 54:14]
  store i16 %102, i16* %103, align 2, !dbg !9759  ; [debug line = 54:14]
  %104 = getelementptr inbounds [5 x i16]* %phiStripSum, i32 0, i32 0, !dbg !9760 ; [#uses=1 type=i16*] [debug line = 55:14]
  %105 = load i16** %4, align 8, !dbg !9760       ; [#uses=1 type=i16*] [debug line = 55:14]
  %106 = load i16* %105, align 2, !dbg !9760      ; [#uses=1 type=i16] [debug line = 55:14]
  %107 = call zeroext i16 @_Z13getPeakBinOf5Ptt(i16* %104, i16 zeroext %106), !dbg !9760 ; [#uses=1 type=i16] [debug line = 55:14]
  %108 = load i16** %3, align 8, !dbg !9760       ; [#uses=1 type=i16*] [debug line = 55:14]
  store i16 %107, i16* %108, align 2, !dbg !9760  ; [debug line = 55:14]
  %109 = load i16** %5, align 8, !dbg !9761       ; [#uses=1 type=i16*] [debug line = 57:3]
  store i16 0, i16* %109, align 2, !dbg !9761     ; [debug line = 57:3]
  call void @llvm.dbg.declare(metadata !{i32* %dEta}, metadata !9762), !dbg !9764 ; [debug line = 58:11] [debug variable = dEta]
  store i32 -1, i32* %dEta, align 4, !dbg !9765   ; [debug line = 58:20]
  br label %110, !dbg !9765                       ; [debug line = 58:20]

; <label>:110                                     ; preds = %161, %98
  %111 = load i32* %dEta, align 4, !dbg !9765     ; [#uses=1 type=i32] [debug line = 58:20]
  %112 = icmp sle i32 %111, 1, !dbg !9765         ; [#uses=1 type=i1] [debug line = 58:20]
  br i1 %112, label %113, label %164, !dbg !9765  ; [debug line = 58:20]

; <label>:113                                     ; preds = %110
  call void (...)* @_ssdm_RegionBegin(i8* getelementptr inbounds ([12 x i8]* @.str7, i32 0, i32 0)) nounwind, !dbg !9766 ; [debug line = 58:42]
  call void (...)* @_ssdm_Unroll(i32 0, i32 0, i32 0, i8* getelementptr inbounds ([1 x i8]* @.str, i32 0, i32 0)) nounwind, !dbg !9768 ; [debug line = 59:1]
  call void @llvm.dbg.declare(metadata !{i32* %dPhi}, metadata !9769), !dbg !9771 ; [debug line = 60:10] [debug variable = dPhi]
  store i32 -1, i32* %dPhi, align 4, !dbg !9772   ; [debug line = 60:19]
  br label %114, !dbg !9772                       ; [debug line = 60:19]

; <label>:114                                     ; preds = %157, %113
  %115 = load i32* %dPhi, align 4, !dbg !9772     ; [#uses=1 type=i32] [debug line = 60:19]
  %116 = icmp sle i32 %115, 1, !dbg !9772         ; [#uses=1 type=i1] [debug line = 60:19]
  br i1 %116, label %117, label %160, !dbg !9772  ; [debug line = 60:19]

; <label>:117                                     ; preds = %114
  call void (...)* @_ssdm_RegionBegin(i8* getelementptr inbounds ([12 x i8]* @.str8, i32 0, i32 0)) nounwind, !dbg !9773 ; [debug line = 60:41]
  call void (...)* @_ssdm_Unroll(i32 0, i32 0, i32 0, i8* getelementptr inbounds ([1 x i8]* @.str, i32 0, i32 0)) nounwind, !dbg !9775 ; [debug line = 61:1]
  call void @llvm.dbg.declare(metadata !{i32* %phi4}, metadata !9776), !dbg !9777 ; [debug line = 62:6] [debug variable = phi]
  %118 = load i16** %3, align 8, !dbg !9778       ; [#uses=1 type=i16*] [debug line = 62:27]
  %119 = load i16* %118, align 2, !dbg !9778      ; [#uses=1 type=i16] [debug line = 62:27]
  %120 = zext i16 %119 to i32, !dbg !9778         ; [#uses=1 type=i32] [debug line = 62:27]
  %121 = load i32* %dPhi, align 4, !dbg !9778     ; [#uses=1 type=i32] [debug line = 62:27]
  %122 = add nsw i32 %120, %121, !dbg !9778       ; [#uses=1 type=i32] [debug line = 62:27]
  store i32 %122, i32* %phi4, align 4, !dbg !9778 ; [debug line = 62:27]
  call void @llvm.dbg.declare(metadata !{i32* %eta5}, metadata !9779), !dbg !9780 ; [debug line = 63:11] [debug variable = eta]
  %123 = load i16** %2, align 8, !dbg !9781       ; [#uses=1 type=i16*] [debug line = 63:32]
  %124 = load i16* %123, align 2, !dbg !9781      ; [#uses=1 type=i16] [debug line = 63:32]
  %125 = zext i16 %124 to i32, !dbg !9781         ; [#uses=1 type=i32] [debug line = 63:32]
  %126 = load i32* %dEta, align 4, !dbg !9781     ; [#uses=1 type=i32] [debug line = 63:32]
  %127 = add nsw i32 %125, %126, !dbg !9781       ; [#uses=1 type=i32] [debug line = 63:32]
  store i32 %127, i32* %eta5, align 4, !dbg !9781 ; [debug line = 63:32]
  call void @llvm.dbg.declare(metadata !{i16* %thisCrystalET}, metadata !9782), !dbg !9783 ; [debug line = 64:16] [debug variable = thisCrystalET]
  store i16 0, i16* %thisCrystalET, align 2, !dbg !9784 ; [debug line = 64:33]
  %128 = load i32* %phi4, align 4, !dbg !9785     ; [#uses=1 type=i32] [debug line = 65:7]
  %129 = icmp sge i32 %128, 0, !dbg !9785         ; [#uses=1 type=i1] [debug line = 65:7]
  br i1 %129, label %130, label %149, !dbg !9785  ; [debug line = 65:7]

; <label>:130                                     ; preds = %117
  %131 = load i32* %phi4, align 4, !dbg !9785     ; [#uses=1 type=i32] [debug line = 65:7]
  %132 = icmp slt i32 %131, 5, !dbg !9785         ; [#uses=1 type=i1] [debug line = 65:7]
  br i1 %132, label %133, label %149, !dbg !9785  ; [debug line = 65:7]

; <label>:133                                     ; preds = %130
  %134 = load i32* %eta5, align 4, !dbg !9786     ; [#uses=1 type=i32] [debug line = 66:9]
  %135 = icmp sge i32 %134, 0, !dbg !9786         ; [#uses=1 type=i1] [debug line = 66:9]
  br i1 %135, label %136, label %148, !dbg !9786  ; [debug line = 66:9]

; <label>:136                                     ; preds = %133
  %137 = load i32* %eta5, align 4, !dbg !9786     ; [#uses=1 type=i32] [debug line = 66:9]
  %138 = icmp slt i32 %137, 5, !dbg !9786         ; [#uses=1 type=i1] [debug line = 66:9]
  br i1 %138, label %139, label %148, !dbg !9786  ; [debug line = 66:9]

; <label>:139                                     ; preds = %136
  %140 = load i32* %phi4, align 4, !dbg !9788     ; [#uses=1 type=i32] [debug line = 67:11]
  %141 = sext i32 %140 to i64, !dbg !9788         ; [#uses=1 type=i64] [debug line = 67:11]
  %142 = load i32* %eta5, align 4, !dbg !9788     ; [#uses=1 type=i32] [debug line = 67:11]
  %143 = sext i32 %142 to i64, !dbg !9788         ; [#uses=1 type=i64] [debug line = 67:11]
  %144 = load [5 x i16]** %1, align 8, !dbg !9788 ; [#uses=1 type=[5 x i16]*] [debug line = 67:11]
  %145 = getelementptr inbounds [5 x i16]* %144, i64 %143, !dbg !9788 ; [#uses=1 type=[5 x i16]*] [debug line = 67:11]
  %146 = getelementptr inbounds [5 x i16]* %145, i32 0, i64 %141, !dbg !9788 ; [#uses=1 type=i16*] [debug line = 67:11]
  %147 = load i16* %146, align 2, !dbg !9788      ; [#uses=1 type=i16] [debug line = 67:11]
  store i16 %147, i16* %thisCrystalET, align 2, !dbg !9788 ; [debug line = 67:11]
  br label %148, !dbg !9790                       ; [debug line = 68:9]

; <label>:148                                     ; preds = %139, %136, %133
  br label %149, !dbg !9791                       ; [debug line = 69:7]

; <label>:149                                     ; preds = %148, %130, %117
  %150 = load i16* %thisCrystalET, align 2, !dbg !9792 ; [#uses=1 type=i16] [debug line = 70:7]
  %151 = zext i16 %150 to i32, !dbg !9792         ; [#uses=1 type=i32] [debug line = 70:7]
  %152 = load i16** %5, align 8, !dbg !9792       ; [#uses=2 type=i16*] [debug line = 70:7]
  %153 = load i16* %152, align 2, !dbg !9792      ; [#uses=1 type=i16] [debug line = 70:7]
  %154 = zext i16 %153 to i32, !dbg !9792         ; [#uses=1 type=i32] [debug line = 70:7]
  %155 = add nsw i32 %154, %151, !dbg !9792       ; [#uses=1 type=i32] [debug line = 70:7]
  %156 = trunc i32 %155 to i16, !dbg !9792        ; [#uses=1 type=i16] [debug line = 70:7]
  store i16 %156, i16* %152, align 2, !dbg !9792  ; [debug line = 70:7]
  call void (...)* @_ssdm_RegionEnd(i8* getelementptr inbounds ([12 x i8]* @.str8, i32 0, i32 0)) nounwind, !dbg !9793 ; [debug line = 71:5]
  br label %157, !dbg !9793                       ; [debug line = 71:5]

; <label>:157                                     ; preds = %149
  %158 = load i32* %dPhi, align 4, !dbg !9794     ; [#uses=1 type=i32] [debug line = 60:32]
  %159 = add nsw i32 %158, 1, !dbg !9794          ; [#uses=1 type=i32] [debug line = 60:32]
  store i32 %159, i32* %dPhi, align 4, !dbg !9794 ; [debug line = 60:32]
  br label %114, !dbg !9794                       ; [debug line = 60:32]

; <label>:160                                     ; preds = %114
  call void (...)* @_ssdm_RegionEnd(i8* getelementptr inbounds ([12 x i8]* @.str7, i32 0, i32 0)) nounwind, !dbg !9795 ; [debug line = 72:3]
  br label %161, !dbg !9795                       ; [debug line = 72:3]

; <label>:161                                     ; preds = %160
  %162 = load i32* %dEta, align 4, !dbg !9796     ; [#uses=1 type=i32] [debug line = 58:33]
  %163 = add nsw i32 %162, 1, !dbg !9796          ; [#uses=1 type=i32] [debug line = 58:33]
  store i32 %163, i32* %dEta, align 4, !dbg !9796 ; [debug line = 58:33]
  br label %110, !dbg !9796                       ; [debug line = 58:33]

; <label>:164                                     ; preds = %110
  ret i1 true, !dbg !9797                         ; [debug line = 73:3]
}

; [#uses=16]
declare void @_ssdm_RegionBegin(...) nounwind

; [#uses=16]
declare void @_ssdm_Unroll(...) nounwind

; [#uses=16]
declare void @_ssdm_RegionEnd(...) nounwind

; [#uses=1]
define zeroext i1 @_Z13mergeClustersttttttttPtS_S_S_S_S_S_S_(i16 zeroext %ieta1, i16 zeroext %iphi1, i16 zeroext %itet1, i16 zeroext %icet1, i16 zeroext %ieta2, i16 zeroext %iphi2, i16 zeroext %itet2, i16 zeroext %icet2, i16* %eta1, i16* %phi1, i16* %tet1, i16* %cet1, i16* %eta2, i16* %phi2, i16* %tet2, i16* %cet2) nounwind uwtable {
  %1 = alloca i16, align 2                        ; [#uses=4 type=i16*]
  %2 = alloca i16, align 2                        ; [#uses=4 type=i16*]
  %3 = alloca i16, align 2                        ; [#uses=4 type=i16*]
  %4 = alloca i16, align 2                        ; [#uses=7 type=i16*]
  %5 = alloca i16, align 2                        ; [#uses=4 type=i16*]
  %6 = alloca i16, align 2                        ; [#uses=4 type=i16*]
  %7 = alloca i16, align 2                        ; [#uses=4 type=i16*]
  %8 = alloca i16, align 2                        ; [#uses=7 type=i16*]
  %9 = alloca i16*, align 8                       ; [#uses=4 type=i16**]
  %10 = alloca i16*, align 8                      ; [#uses=4 type=i16**]
  %11 = alloca i16*, align 8                      ; [#uses=4 type=i16**]
  %12 = alloca i16*, align 8                      ; [#uses=4 type=i16**]
  %13 = alloca i16*, align 8                      ; [#uses=4 type=i16**]
  %14 = alloca i16*, align 8                      ; [#uses=4 type=i16**]
  %15 = alloca i16*, align 8                      ; [#uses=4 type=i16**]
  %16 = alloca i16*, align 8                      ; [#uses=4 type=i16**]
  store i16 %ieta1, i16* %1, align 2
  call void @llvm.dbg.declare(metadata !{i16* %1}, metadata !9798), !dbg !9799 ; [debug line = 76:29] [debug variable = ieta1]
  store i16 %iphi1, i16* %2, align 2
  call void @llvm.dbg.declare(metadata !{i16* %2}, metadata !9800), !dbg !9801 ; [debug line = 76:45] [debug variable = iphi1]
  store i16 %itet1, i16* %3, align 2
  call void @llvm.dbg.declare(metadata !{i16* %3}, metadata !9802), !dbg !9803 ; [debug line = 76:61] [debug variable = itet1]
  store i16 %icet1, i16* %4, align 2
  call void @llvm.dbg.declare(metadata !{i16* %4}, metadata !9804), !dbg !9805 ; [debug line = 76:77] [debug variable = icet1]
  store i16 %ieta2, i16* %5, align 2
  call void @llvm.dbg.declare(metadata !{i16* %5}, metadata !9806), !dbg !9807 ; [debug line = 77:29] [debug variable = ieta2]
  store i16 %iphi2, i16* %6, align 2
  call void @llvm.dbg.declare(metadata !{i16* %6}, metadata !9808), !dbg !9809 ; [debug line = 77:45] [debug variable = iphi2]
  store i16 %itet2, i16* %7, align 2
  call void @llvm.dbg.declare(metadata !{i16* %7}, metadata !9810), !dbg !9811 ; [debug line = 77:61] [debug variable = itet2]
  store i16 %icet2, i16* %8, align 2
  call void @llvm.dbg.declare(metadata !{i16* %8}, metadata !9812), !dbg !9813 ; [debug line = 77:77] [debug variable = icet2]
  store i16* %eta1, i16** %9, align 8
  call void @llvm.dbg.declare(metadata !{i16** %9}, metadata !9814), !dbg !9815 ; [debug line = 78:30] [debug variable = eta1]
  store i16* %phi1, i16** %10, align 8
  call void @llvm.dbg.declare(metadata !{i16** %10}, metadata !9816), !dbg !9817 ; [debug line = 78:46] [debug variable = phi1]
  store i16* %tet1, i16** %11, align 8
  call void @llvm.dbg.declare(metadata !{i16** %11}, metadata !9818), !dbg !9819 ; [debug line = 78:62] [debug variable = tet1]
  store i16* %cet1, i16** %12, align 8
  call void @llvm.dbg.declare(metadata !{i16** %12}, metadata !9820), !dbg !9821 ; [debug line = 78:78] [debug variable = cet1]
  store i16* %eta2, i16** %13, align 8
  call void @llvm.dbg.declare(metadata !{i16** %13}, metadata !9822), !dbg !9823 ; [debug line = 79:30] [debug variable = eta2]
  store i16* %phi2, i16** %14, align 8
  call void @llvm.dbg.declare(metadata !{i16** %14}, metadata !9824), !dbg !9825 ; [debug line = 79:46] [debug variable = phi2]
  store i16* %tet2, i16** %15, align 8
  call void @llvm.dbg.declare(metadata !{i16** %15}, metadata !9826), !dbg !9827 ; [debug line = 79:62] [debug variable = tet2]
  store i16* %cet2, i16** %16, align 8
  call void @llvm.dbg.declare(metadata !{i16** %16}, metadata !9828), !dbg !9829 ; [debug line = 79:78] [debug variable = cet2]
  call void (...)* @_ssdm_op_SpecPipeline(i32 6, i32 1, i32 1, i32 0, i8* getelementptr inbounds ([1 x i8]* @.str, i32 0, i32 0)) nounwind, !dbg !9830 ; [debug line = 80:1]
  %17 = load i16* %1, align 2, !dbg !9832         ; [#uses=1 type=i16] [debug line = 82:3]
  %18 = zext i16 %17 to i32, !dbg !9832           ; [#uses=1 type=i32] [debug line = 82:3]
  %19 = load i16* %5, align 2, !dbg !9832         ; [#uses=1 type=i16] [debug line = 82:3]
  %20 = zext i16 %19 to i32, !dbg !9832           ; [#uses=1 type=i32] [debug line = 82:3]
  %21 = icmp eq i32 %18, %20, !dbg !9832          ; [#uses=1 type=i1] [debug line = 82:3]
  br i1 %21, label %28, label %22, !dbg !9832     ; [debug line = 82:3]

; <label>:22                                      ; preds = %0
  %23 = load i16* %2, align 2, !dbg !9832         ; [#uses=1 type=i16] [debug line = 82:3]
  %24 = zext i16 %23 to i32, !dbg !9832           ; [#uses=1 type=i32] [debug line = 82:3]
  %25 = load i16* %6, align 2, !dbg !9832         ; [#uses=1 type=i16] [debug line = 82:3]
  %26 = zext i16 %25 to i32, !dbg !9832           ; [#uses=1 type=i32] [debug line = 82:3]
  %27 = icmp eq i32 %24, %26, !dbg !9832          ; [#uses=1 type=i1] [debug line = 82:3]
  br i1 %27, label %28, label %93, !dbg !9832     ; [debug line = 82:3]

; <label>:28                                      ; preds = %22, %0
  %29 = load i16* %4, align 2, !dbg !9833         ; [#uses=1 type=i16] [debug line = 83:5]
  %30 = zext i16 %29 to i32, !dbg !9833           ; [#uses=1 type=i32] [debug line = 83:5]
  %31 = load i16* %8, align 2, !dbg !9833         ; [#uses=1 type=i16] [debug line = 83:5]
  %32 = zext i16 %31 to i32, !dbg !9833           ; [#uses=1 type=i32] [debug line = 83:5]
  %33 = icmp sgt i32 %30, %32, !dbg !9833         ; [#uses=1 type=i1] [debug line = 83:5]
  br i1 %33, label %34, label %63, !dbg !9833     ; [debug line = 83:5]

; <label>:34                                      ; preds = %28
  %35 = load i16* %1, align 2, !dbg !9835         ; [#uses=1 type=i16] [debug line = 85:7]
  %36 = load i16** %9, align 8, !dbg !9835        ; [#uses=1 type=i16*] [debug line = 85:7]
  store i16 %35, i16* %36, align 2, !dbg !9835    ; [debug line = 85:7]
  %37 = load i16* %2, align 2, !dbg !9837         ; [#uses=1 type=i16] [debug line = 86:7]
  %38 = load i16** %10, align 8, !dbg !9837       ; [#uses=1 type=i16*] [debug line = 86:7]
  store i16 %37, i16* %38, align 2, !dbg !9837    ; [debug line = 86:7]
  %39 = load i16* %4, align 2, !dbg !9838         ; [#uses=1 type=i16] [debug line = 87:7]
  %40 = zext i16 %39 to i32, !dbg !9838           ; [#uses=1 type=i32] [debug line = 87:7]
  %41 = load i16* %8, align 2, !dbg !9838         ; [#uses=1 type=i16] [debug line = 87:7]
  %42 = zext i16 %41 to i32, !dbg !9838           ; [#uses=1 type=i32] [debug line = 87:7]
  %43 = add nsw i32 %40, %42, !dbg !9838          ; [#uses=1 type=i32] [debug line = 87:7]
  %44 = trunc i32 %43 to i16, !dbg !9838          ; [#uses=1 type=i16] [debug line = 87:7]
  %45 = load i16** %12, align 8, !dbg !9838       ; [#uses=1 type=i16*] [debug line = 87:7]
  store i16 %44, i16* %45, align 2, !dbg !9838    ; [debug line = 87:7]
  %46 = load i16* %3, align 2, !dbg !9839         ; [#uses=1 type=i16] [debug line = 88:7]
  %47 = zext i16 %46 to i32, !dbg !9839           ; [#uses=1 type=i32] [debug line = 88:7]
  %48 = load i16* %8, align 2, !dbg !9839         ; [#uses=1 type=i16] [debug line = 88:7]
  %49 = zext i16 %48 to i32, !dbg !9839           ; [#uses=1 type=i32] [debug line = 88:7]
  %50 = add nsw i32 %47, %49, !dbg !9839          ; [#uses=1 type=i32] [debug line = 88:7]
  %51 = trunc i32 %50 to i16, !dbg !9839          ; [#uses=1 type=i16] [debug line = 88:7]
  %52 = load i16** %11, align 8, !dbg !9839       ; [#uses=1 type=i16*] [debug line = 88:7]
  store i16 %51, i16* %52, align 2, !dbg !9839    ; [debug line = 88:7]
  %53 = load i16** %13, align 8, !dbg !9840       ; [#uses=1 type=i16*] [debug line = 89:7]
  store i16 2, i16* %53, align 2, !dbg !9840      ; [debug line = 89:7]
  %54 = load i16** %14, align 8, !dbg !9841       ; [#uses=1 type=i16*] [debug line = 90:7]
  store i16 2, i16* %54, align 2, !dbg !9841      ; [debug line = 90:7]
  %55 = load i16** %16, align 8, !dbg !9842       ; [#uses=1 type=i16*] [debug line = 91:7]
  store i16 0, i16* %55, align 2, !dbg !9842      ; [debug line = 91:7]
  %56 = load i16* %7, align 2, !dbg !9843         ; [#uses=1 type=i16] [debug line = 92:7]
  %57 = zext i16 %56 to i32, !dbg !9843           ; [#uses=1 type=i32] [debug line = 92:7]
  %58 = load i16* %8, align 2, !dbg !9843         ; [#uses=1 type=i16] [debug line = 92:7]
  %59 = zext i16 %58 to i32, !dbg !9843           ; [#uses=1 type=i32] [debug line = 92:7]
  %60 = sub nsw i32 %57, %59, !dbg !9843          ; [#uses=1 type=i32] [debug line = 92:7]
  %61 = trunc i32 %60 to i16, !dbg !9843          ; [#uses=1 type=i16] [debug line = 92:7]
  %62 = load i16** %15, align 8, !dbg !9843       ; [#uses=1 type=i16*] [debug line = 92:7]
  store i16 %61, i16* %62, align 2, !dbg !9843    ; [debug line = 92:7]
  br label %92, !dbg !9844                        ; [debug line = 93:5]

; <label>:63                                      ; preds = %28
  %64 = load i16* %5, align 2, !dbg !9845         ; [#uses=1 type=i16] [debug line = 96:7]
  %65 = load i16** %13, align 8, !dbg !9845       ; [#uses=1 type=i16*] [debug line = 96:7]
  store i16 %64, i16* %65, align 2, !dbg !9845    ; [debug line = 96:7]
  %66 = load i16* %6, align 2, !dbg !9847         ; [#uses=1 type=i16] [debug line = 97:7]
  %67 = load i16** %14, align 8, !dbg !9847       ; [#uses=1 type=i16*] [debug line = 97:7]
  store i16 %66, i16* %67, align 2, !dbg !9847    ; [debug line = 97:7]
  %68 = load i16* %8, align 2, !dbg !9848         ; [#uses=1 type=i16] [debug line = 98:7]
  %69 = zext i16 %68 to i32, !dbg !9848           ; [#uses=1 type=i32] [debug line = 98:7]
  %70 = load i16* %4, align 2, !dbg !9848         ; [#uses=1 type=i16] [debug line = 98:7]
  %71 = zext i16 %70 to i32, !dbg !9848           ; [#uses=1 type=i32] [debug line = 98:7]
  %72 = add nsw i32 %69, %71, !dbg !9848          ; [#uses=1 type=i32] [debug line = 98:7]
  %73 = trunc i32 %72 to i16, !dbg !9848          ; [#uses=1 type=i16] [debug line = 98:7]
  %74 = load i16** %16, align 8, !dbg !9848       ; [#uses=1 type=i16*] [debug line = 98:7]
  store i16 %73, i16* %74, align 2, !dbg !9848    ; [debug line = 98:7]
  %75 = load i16* %7, align 2, !dbg !9849         ; [#uses=1 type=i16] [debug line = 99:7]
  %76 = zext i16 %75 to i32, !dbg !9849           ; [#uses=1 type=i32] [debug line = 99:7]
  %77 = load i16* %4, align 2, !dbg !9849         ; [#uses=1 type=i16] [debug line = 99:7]
  %78 = zext i16 %77 to i32, !dbg !9849           ; [#uses=1 type=i32] [debug line = 99:7]
  %79 = add nsw i32 %76, %78, !dbg !9849          ; [#uses=1 type=i32] [debug line = 99:7]
  %80 = trunc i32 %79 to i16, !dbg !9849          ; [#uses=1 type=i16] [debug line = 99:7]
  %81 = load i16** %15, align 8, !dbg !9849       ; [#uses=1 type=i16*] [debug line = 99:7]
  store i16 %80, i16* %81, align 2, !dbg !9849    ; [debug line = 99:7]
  %82 = load i16** %9, align 8, !dbg !9850        ; [#uses=1 type=i16*] [debug line = 100:7]
  store i16 2, i16* %82, align 2, !dbg !9850      ; [debug line = 100:7]
  %83 = load i16** %10, align 8, !dbg !9851       ; [#uses=1 type=i16*] [debug line = 101:7]
  store i16 2, i16* %83, align 2, !dbg !9851      ; [debug line = 101:7]
  %84 = load i16** %12, align 8, !dbg !9852       ; [#uses=1 type=i16*] [debug line = 102:7]
  store i16 0, i16* %84, align 2, !dbg !9852      ; [debug line = 102:7]
  %85 = load i16* %3, align 2, !dbg !9853         ; [#uses=1 type=i16] [debug line = 103:7]
  %86 = zext i16 %85 to i32, !dbg !9853           ; [#uses=1 type=i32] [debug line = 103:7]
  %87 = load i16* %4, align 2, !dbg !9853         ; [#uses=1 type=i16] [debug line = 103:7]
  %88 = zext i16 %87 to i32, !dbg !9853           ; [#uses=1 type=i32] [debug line = 103:7]
  %89 = sub nsw i32 %86, %88, !dbg !9853          ; [#uses=1 type=i32] [debug line = 103:7]
  %90 = trunc i32 %89 to i16, !dbg !9853          ; [#uses=1 type=i16] [debug line = 103:7]
  %91 = load i16** %11, align 8, !dbg !9853       ; [#uses=1 type=i16*] [debug line = 103:7]
  store i16 %90, i16* %91, align 2, !dbg !9853    ; [debug line = 103:7]
  br label %92

; <label>:92                                      ; preds = %63, %34
  br label %110, !dbg !9854                       ; [debug line = 105:3]

; <label>:93                                      ; preds = %22
  %94 = load i16* %1, align 2, !dbg !9855         ; [#uses=1 type=i16] [debug line = 107:5]
  %95 = load i16** %9, align 8, !dbg !9855        ; [#uses=1 type=i16*] [debug line = 107:5]
  store i16 %94, i16* %95, align 2, !dbg !9855    ; [debug line = 107:5]
  %96 = load i16* %2, align 2, !dbg !9857         ; [#uses=1 type=i16] [debug line = 108:5]
  %97 = load i16** %10, align 8, !dbg !9857       ; [#uses=1 type=i16*] [debug line = 108:5]
  store i16 %96, i16* %97, align 2, !dbg !9857    ; [debug line = 108:5]
  %98 = load i16* %4, align 2, !dbg !9858         ; [#uses=1 type=i16] [debug line = 109:5]
  %99 = load i16** %12, align 8, !dbg !9858       ; [#uses=1 type=i16*] [debug line = 109:5]
  store i16 %98, i16* %99, align 2, !dbg !9858    ; [debug line = 109:5]
  %100 = load i16* %3, align 2, !dbg !9859        ; [#uses=1 type=i16] [debug line = 110:5]
  %101 = load i16** %11, align 8, !dbg !9859      ; [#uses=1 type=i16*] [debug line = 110:5]
  store i16 %100, i16* %101, align 2, !dbg !9859  ; [debug line = 110:5]
  %102 = load i16* %5, align 2, !dbg !9860        ; [#uses=1 type=i16] [debug line = 111:5]
  %103 = load i16** %13, align 8, !dbg !9860      ; [#uses=1 type=i16*] [debug line = 111:5]
  store i16 %102, i16* %103, align 2, !dbg !9860  ; [debug line = 111:5]
  %104 = load i16* %6, align 2, !dbg !9861        ; [#uses=1 type=i16] [debug line = 112:5]
  %105 = load i16** %14, align 8, !dbg !9861      ; [#uses=1 type=i16*] [debug line = 112:5]
  store i16 %104, i16* %105, align 2, !dbg !9861  ; [debug line = 112:5]
  %106 = load i16* %8, align 2, !dbg !9862        ; [#uses=1 type=i16] [debug line = 113:5]
  %107 = load i16** %16, align 8, !dbg !9862      ; [#uses=1 type=i16*] [debug line = 113:5]
  store i16 %106, i16* %107, align 2, !dbg !9862  ; [debug line = 113:5]
  %108 = load i16* %7, align 2, !dbg !9863        ; [#uses=1 type=i16] [debug line = 114:5]
  %109 = load i16** %15, align 8, !dbg !9863      ; [#uses=1 type=i16*] [debug line = 114:5]
  store i16 %108, i16* %109, align 2, !dbg !9863  ; [debug line = 114:5]
  br label %110

; <label>:110                                     ; preds = %93, %92
  ret i1 true, !dbg !9864                         ; [debug line = 116:3]
}

; [#uses=0]
define zeroext i1 @_Z17getClustersInCardPA4_A5_A5_tPA4_tS4_S4_S4_([4 x [5 x [5 x i16]]]* %crystals, [4 x i16]* %peakEta, [4 x i16]* %peakPhi, [4 x i16]* %towerET, [4 x i16]* %clusterET) nounwind uwtable {
  %1 = alloca i1, align 1                         ; [#uses=4 type=i1*]
  %2 = alloca [4 x [5 x [5 x i16]]]*, align 8     ; [#uses=4 type=[4 x [5 x [5 x i16]]]**]
  %3 = alloca [4 x i16]*, align 8                 ; [#uses=6 type=[4 x i16]**]
  %4 = alloca [4 x i16]*, align 8                 ; [#uses=6 type=[4 x i16]**]
  %5 = alloca [4 x i16]*, align 8                 ; [#uses=6 type=[4 x i16]**]
  %6 = alloca [4 x i16]*, align 8                 ; [#uses=6 type=[4 x i16]**]
  %preMergePeakEta = alloca [17 x [4 x i16]], align 16 ; [#uses=8 type=[17 x [4 x i16]]*]
  %preMergePeakPhi = alloca [17 x [4 x i16]], align 16 ; [#uses=8 type=[17 x [4 x i16]]*]
  %preMergeTowerET = alloca [17 x [4 x i16]], align 16 ; [#uses=6 type=[17 x [4 x i16]]*]
  %preMergeClusterET = alloca [17 x [4 x i16]], align 16 ; [#uses=6 type=[17 x [4 x i16]]*]
  %tEta = alloca i32, align 4                     ; [#uses=13 type=i32*]
  %tPhi = alloca i32, align 4                     ; [#uses=13 type=i32*]
  %tEta1 = alloca i32, align 4                    ; [#uses=28 type=i32*]
  %tPhi2 = alloca i32, align 4                    ; [#uses=28 type=i32*]
  %nEta = alloca i32, align 4                     ; [#uses=13 type=i32*]
  %nPhi = alloca i32, align 4                     ; [#uses=13 type=i32*]
  store [4 x [5 x [5 x i16]]]* %crystals, [4 x [5 x [5 x i16]]]** %2, align 8
  call void @llvm.dbg.declare(metadata !{[4 x [5 x [5 x i16]]]** %2}, metadata !9865), !dbg !9866 ; [debug line = 119:33] [debug variable = crystals]
  store [4 x i16]* %peakEta, [4 x i16]** %3, align 8
  call void @llvm.dbg.declare(metadata !{[4 x i16]** %3}, metadata !9867), !dbg !9868 ; [debug line = 120:33] [debug variable = peakEta]
  store [4 x i16]* %peakPhi, [4 x i16]** %4, align 8
  call void @llvm.dbg.declare(metadata !{[4 x i16]** %4}, metadata !9869), !dbg !9870 ; [debug line = 121:33] [debug variable = peakPhi]
  store [4 x i16]* %towerET, [4 x i16]** %5, align 8
  call void @llvm.dbg.declare(metadata !{[4 x i16]** %5}, metadata !9871), !dbg !9872 ; [debug line = 122:33] [debug variable = towerET]
  store [4 x i16]* %clusterET, [4 x i16]** %6, align 8
  call void @llvm.dbg.declare(metadata !{[4 x i16]** %6}, metadata !9873), !dbg !9874 ; [debug line = 123:33] [debug variable = clusterET]
  %7 = load [4 x i16]** %5, align 8, !dbg !9875   ; [#uses=1 type=[4 x i16]*] [debug line = 123:77]
  call void (...)* @_ssdm_SpecArrayDimSize([4 x i16]* %7, i32 17) nounwind, !dbg !9875 ; [debug line = 123:77]
  %8 = load [4 x [5 x [5 x i16]]]** %2, align 8, !dbg !9877 ; [#uses=1 type=[4 x [5 x [5 x i16]]]*] [debug line = 123:124]
  call void (...)* @_ssdm_SpecArrayDimSize([4 x [5 x [5 x i16]]]* %8, i32 17) nounwind, !dbg !9877 ; [debug line = 123:124]
  %9 = load [4 x i16]** %6, align 8, !dbg !9878   ; [#uses=1 type=[4 x i16]*] [debug line = 123:172]
  call void (...)* @_ssdm_SpecArrayDimSize([4 x i16]* %9, i32 17) nounwind, !dbg !9878 ; [debug line = 123:172]
  %10 = load [4 x i16]** %4, align 8, !dbg !9879  ; [#uses=1 type=[4 x i16]*] [debug line = 123:221]
  call void (...)* @_ssdm_SpecArrayDimSize([4 x i16]* %10, i32 17) nounwind, !dbg !9879 ; [debug line = 123:221]
  %11 = load [4 x i16]** %3, align 8, !dbg !9880  ; [#uses=1 type=[4 x i16]*] [debug line = 123:0]
  call void (...)* @_ssdm_SpecArrayDimSize([4 x i16]* %11, i32 17) nounwind, !dbg !9880 ; [debug line = 123:0]
  call void (...)* @_ssdm_op_SpecPipeline(i32 6, i32 1, i32 1, i32 0, i8* getelementptr inbounds ([1 x i8]* @.str, i32 0, i32 0)) nounwind, !dbg !9881 ; [debug line = 124:1]
  %12 = load [4 x [5 x [5 x i16]]]** %2, align 8, !dbg !9882 ; [#uses=1 type=[4 x [5 x [5 x i16]]]*] [debug line = 125:1]
  call void (...)* @_ssdm_SpecArrayPartition([4 x [5 x [5 x i16]]]* %12, i32 0, i8* getelementptr inbounds ([9 x i8]* @.str1, i32 0, i32 0), i32 0, i8* getelementptr inbounds ([1 x i8]* @.str, i32 0, i32 0)) nounwind, !dbg !9882 ; [debug line = 125:1]
  %13 = load [4 x i16]** %3, align 8, !dbg !9883  ; [#uses=1 type=[4 x i16]*] [debug line = 126:1]
  call void (...)* @_ssdm_SpecArrayPartition([4 x i16]* %13, i32 0, i8* getelementptr inbounds ([9 x i8]* @.str1, i32 0, i32 0), i32 0, i8* getelementptr inbounds ([1 x i8]* @.str, i32 0, i32 0)) nounwind, !dbg !9883 ; [debug line = 126:1]
  %14 = load [4 x i16]** %4, align 8, !dbg !9884  ; [#uses=1 type=[4 x i16]*] [debug line = 127:1]
  call void (...)* @_ssdm_SpecArrayPartition([4 x i16]* %14, i32 0, i8* getelementptr inbounds ([9 x i8]* @.str1, i32 0, i32 0), i32 0, i8* getelementptr inbounds ([1 x i8]* @.str, i32 0, i32 0)) nounwind, !dbg !9884 ; [debug line = 127:1]
  %15 = load [4 x i16]** %5, align 8, !dbg !9885  ; [#uses=1 type=[4 x i16]*] [debug line = 128:1]
  call void (...)* @_ssdm_SpecArrayPartition([4 x i16]* %15, i32 0, i8* getelementptr inbounds ([9 x i8]* @.str1, i32 0, i32 0), i32 0, i8* getelementptr inbounds ([1 x i8]* @.str, i32 0, i32 0)) nounwind, !dbg !9885 ; [debug line = 128:1]
  %16 = load [4 x i16]** %6, align 8, !dbg !9886  ; [#uses=1 type=[4 x i16]*] [debug line = 129:1]
  call void (...)* @_ssdm_SpecArrayPartition([4 x i16]* %16, i32 0, i8* getelementptr inbounds ([9 x i8]* @.str1, i32 0, i32 0), i32 0, i8* getelementptr inbounds ([1 x i8]* @.str, i32 0, i32 0)) nounwind, !dbg !9886 ; [debug line = 129:1]
  call void @llvm.dbg.declare(metadata !{[17 x [4 x i16]]* %preMergePeakEta}, metadata !9887), !dbg !9891 ; [debug line = 130:11] [debug variable = preMergePeakEta]
  call void @llvm.dbg.declare(metadata !{[17 x [4 x i16]]* %preMergePeakPhi}, metadata !9892), !dbg !9893 ; [debug line = 131:12] [debug variable = preMergePeakPhi]
  call void @llvm.dbg.declare(metadata !{[17 x [4 x i16]]* %preMergeTowerET}, metadata !9894), !dbg !9895 ; [debug line = 132:12] [debug variable = preMergeTowerET]
  call void @llvm.dbg.declare(metadata !{[17 x [4 x i16]]* %preMergeClusterET}, metadata !9896), !dbg !9897 ; [debug line = 133:12] [debug variable = preMergeClusterET]
  %17 = getelementptr inbounds [17 x [4 x i16]]* %preMergePeakEta, i32 0, i32 0, !dbg !9898 ; [#uses=1 type=[4 x i16]*] [debug line = 134:1]
  call void (...)* @_ssdm_SpecArrayPartition([4 x i16]* %17, i32 0, i8* getelementptr inbounds ([9 x i8]* @.str1, i32 0, i32 0), i32 0, i8* getelementptr inbounds ([1 x i8]* @.str, i32 0, i32 0)) nounwind, !dbg !9898 ; [debug line = 134:1]
  %18 = getelementptr inbounds [17 x [4 x i16]]* %preMergePeakPhi, i32 0, i32 0, !dbg !9899 ; [#uses=1 type=[4 x i16]*] [debug line = 135:1]
  call void (...)* @_ssdm_SpecArrayPartition([4 x i16]* %18, i32 0, i8* getelementptr inbounds ([9 x i8]* @.str1, i32 0, i32 0), i32 0, i8* getelementptr inbounds ([1 x i8]* @.str, i32 0, i32 0)) nounwind, !dbg !9899 ; [debug line = 135:1]
  %19 = getelementptr inbounds [17 x [4 x i16]]* %preMergeTowerET, i32 0, i32 0, !dbg !9900 ; [#uses=1 type=[4 x i16]*] [debug line = 136:1]
  call void (...)* @_ssdm_SpecArrayPartition([4 x i16]* %19, i32 0, i8* getelementptr inbounds ([9 x i8]* @.str1, i32 0, i32 0), i32 0, i8* getelementptr inbounds ([1 x i8]* @.str, i32 0, i32 0)) nounwind, !dbg !9900 ; [debug line = 136:1]
  %20 = getelementptr inbounds [17 x [4 x i16]]* %preMergeClusterET, i32 0, i32 0, !dbg !9901 ; [#uses=1 type=[4 x i16]*] [debug line = 137:1]
  call void (...)* @_ssdm_SpecArrayPartition([4 x i16]* %20, i32 0, i8* getelementptr inbounds ([9 x i8]* @.str1, i32 0, i32 0), i32 0, i8* getelementptr inbounds ([1 x i8]* @.str, i32 0, i32 0)) nounwind, !dbg !9901 ; [debug line = 137:1]
  call void @llvm.dbg.declare(metadata !{i32* %tEta}, metadata !9902), !dbg !9904 ; [debug line = 138:10] [debug variable = tEta]
  store i32 0, i32* %tEta, align 4, !dbg !9905    ; [debug line = 138:18]
  br label %21, !dbg !9905                        ; [debug line = 138:18]

; <label>:21                                      ; preds = %92, %0
  %22 = load i32* %tEta, align 4, !dbg !9905      ; [#uses=1 type=i32] [debug line = 138:18]
  %23 = icmp slt i32 %22, 17, !dbg !9905          ; [#uses=1 type=i1] [debug line = 138:18]
  br i1 %23, label %24, label %95, !dbg !9905     ; [debug line = 138:18]

; <label>:24                                      ; preds = %21
  call void (...)* @_ssdm_RegionBegin(i8* getelementptr inbounds ([12 x i8]* @.str9, i32 0, i32 0)) nounwind, !dbg !9906 ; [debug line = 138:52]
  call void (...)* @_ssdm_Unroll(i32 0, i32 0, i32 0, i8* getelementptr inbounds ([1 x i8]* @.str, i32 0, i32 0)) nounwind, !dbg !9908 ; [debug line = 139:1]
  call void @llvm.dbg.declare(metadata !{i32* %tPhi}, metadata !9909), !dbg !9911 ; [debug line = 140:10] [debug variable = tPhi]
  store i32 0, i32* %tPhi, align 4, !dbg !9912    ; [debug line = 140:18]
  br label %25, !dbg !9912                        ; [debug line = 140:18]

; <label>:25                                      ; preds = %88, %24
  %26 = load i32* %tPhi, align 4, !dbg !9912      ; [#uses=1 type=i32] [debug line = 140:18]
  %27 = icmp slt i32 %26, 4, !dbg !9912           ; [#uses=1 type=i1] [debug line = 140:18]
  br i1 %27, label %28, label %91, !dbg !9912     ; [debug line = 140:18]

; <label>:28                                      ; preds = %25
  call void (...)* @_ssdm_RegionBegin(i8* getelementptr inbounds ([12 x i8]* @.str10, i32 0, i32 0)) nounwind, !dbg !9913 ; [debug line = 140:52]
  call void (...)* @_ssdm_Unroll(i32 0, i32 0, i32 0, i8* getelementptr inbounds ([1 x i8]* @.str, i32 0, i32 0)) nounwind, !dbg !9915 ; [debug line = 141:1]
  %29 = load i32* %tPhi, align 4, !dbg !9916      ; [#uses=1 type=i32] [debug line = 142:2]
  %30 = sext i32 %29 to i64, !dbg !9916           ; [#uses=1 type=i64] [debug line = 142:2]
  %31 = load i32* %tEta, align 4, !dbg !9916      ; [#uses=1 type=i32] [debug line = 142:2]
  %32 = sext i32 %31 to i64, !dbg !9916           ; [#uses=1 type=i64] [debug line = 142:2]
  %33 = getelementptr inbounds [17 x [4 x i16]]* %preMergePeakEta, i32 0, i64 %32, !dbg !9916 ; [#uses=1 type=[4 x i16]*] [debug line = 142:2]
  %34 = getelementptr inbounds [4 x i16]* %33, i32 0, i64 %30, !dbg !9916 ; [#uses=1 type=i16*] [debug line = 142:2]
  store i16 999, i16* %34, align 2, !dbg !9916    ; [debug line = 142:2]
  %35 = load i32* %tPhi, align 4, !dbg !9917      ; [#uses=1 type=i32] [debug line = 143:7]
  %36 = sext i32 %35 to i64, !dbg !9917           ; [#uses=1 type=i64] [debug line = 143:7]
  %37 = load i32* %tEta, align 4, !dbg !9917      ; [#uses=1 type=i32] [debug line = 143:7]
  %38 = sext i32 %37 to i64, !dbg !9917           ; [#uses=1 type=i64] [debug line = 143:7]
  %39 = getelementptr inbounds [17 x [4 x i16]]* %preMergePeakPhi, i32 0, i64 %38, !dbg !9917 ; [#uses=1 type=[4 x i16]*] [debug line = 143:7]
  %40 = getelementptr inbounds [4 x i16]* %39, i32 0, i64 %36, !dbg !9917 ; [#uses=1 type=i16*] [debug line = 143:7]
  store i16 999, i16* %40, align 2, !dbg !9917    ; [debug line = 143:7]
  %41 = load i32* %tPhi, align 4, !dbg !9918      ; [#uses=1 type=i32] [debug line = 144:7]
  %42 = sext i32 %41 to i64, !dbg !9918           ; [#uses=1 type=i64] [debug line = 144:7]
  %43 = load i32* %tEta, align 4, !dbg !9918      ; [#uses=1 type=i32] [debug line = 144:7]
  %44 = sext i32 %43 to i64, !dbg !9918           ; [#uses=1 type=i64] [debug line = 144:7]
  %45 = getelementptr inbounds [17 x [4 x i16]]* %preMergeTowerET, i32 0, i64 %44, !dbg !9918 ; [#uses=1 type=[4 x i16]*] [debug line = 144:7]
  %46 = getelementptr inbounds [4 x i16]* %45, i32 0, i64 %42, !dbg !9918 ; [#uses=1 type=i16*] [debug line = 144:7]
  store i16 0, i16* %46, align 2, !dbg !9918      ; [debug line = 144:7]
  %47 = load i32* %tPhi, align 4, !dbg !9919      ; [#uses=1 type=i32] [debug line = 145:7]
  %48 = sext i32 %47 to i64, !dbg !9919           ; [#uses=1 type=i64] [debug line = 145:7]
  %49 = load i32* %tEta, align 4, !dbg !9919      ; [#uses=1 type=i32] [debug line = 145:7]
  %50 = sext i32 %49 to i64, !dbg !9919           ; [#uses=1 type=i64] [debug line = 145:7]
  %51 = getelementptr inbounds [17 x [4 x i16]]* %preMergeClusterET, i32 0, i64 %50, !dbg !9919 ; [#uses=1 type=[4 x i16]*] [debug line = 145:7]
  %52 = getelementptr inbounds [4 x i16]* %51, i32 0, i64 %48, !dbg !9919 ; [#uses=1 type=i16*] [debug line = 145:7]
  store i16 0, i16* %52, align 2, !dbg !9919      ; [debug line = 145:7]
  %53 = load i32* %tPhi, align 4, !dbg !9920      ; [#uses=1 type=i32] [debug line = 146:11]
  %54 = sext i32 %53 to i64, !dbg !9920           ; [#uses=1 type=i64] [debug line = 146:11]
  %55 = load i32* %tEta, align 4, !dbg !9920      ; [#uses=1 type=i32] [debug line = 146:11]
  %56 = sext i32 %55 to i64, !dbg !9920           ; [#uses=1 type=i64] [debug line = 146:11]
  %57 = load [4 x [5 x [5 x i16]]]** %2, align 8, !dbg !9920 ; [#uses=1 type=[4 x [5 x [5 x i16]]]*] [debug line = 146:11]
  %58 = getelementptr inbounds [4 x [5 x [5 x i16]]]* %57, i64 %56, !dbg !9920 ; [#uses=1 type=[4 x [5 x [5 x i16]]]*] [debug line = 146:11]
  %59 = getelementptr inbounds [4 x [5 x [5 x i16]]]* %58, i32 0, i64 %54, !dbg !9920 ; [#uses=1 type=[5 x [5 x i16]]*] [debug line = 146:11]
  %60 = getelementptr inbounds [5 x [5 x i16]]* %59, i32 0, i32 0, !dbg !9920 ; [#uses=1 type=[5 x i16]*] [debug line = 146:11]
  %61 = load i32* %tPhi, align 4, !dbg !9920      ; [#uses=1 type=i32] [debug line = 146:11]
  %62 = sext i32 %61 to i64, !dbg !9920           ; [#uses=1 type=i64] [debug line = 146:11]
  %63 = load i32* %tEta, align 4, !dbg !9920      ; [#uses=1 type=i32] [debug line = 146:11]
  %64 = sext i32 %63 to i64, !dbg !9920           ; [#uses=1 type=i64] [debug line = 146:11]
  %65 = getelementptr inbounds [17 x [4 x i16]]* %preMergePeakEta, i32 0, i64 %64, !dbg !9920 ; [#uses=1 type=[4 x i16]*] [debug line = 146:11]
  %66 = getelementptr inbounds [4 x i16]* %65, i32 0, i64 %62, !dbg !9920 ; [#uses=1 type=i16*] [debug line = 146:11]
  %67 = load i32* %tPhi, align 4, !dbg !9920      ; [#uses=1 type=i32] [debug line = 146:11]
  %68 = sext i32 %67 to i64, !dbg !9920           ; [#uses=1 type=i64] [debug line = 146:11]
  %69 = load i32* %tEta, align 4, !dbg !9920      ; [#uses=1 type=i32] [debug line = 146:11]
  %70 = sext i32 %69 to i64, !dbg !9920           ; [#uses=1 type=i64] [debug line = 146:11]
  %71 = getelementptr inbounds [17 x [4 x i16]]* %preMergePeakPhi, i32 0, i64 %70, !dbg !9920 ; [#uses=1 type=[4 x i16]*] [debug line = 146:11]
  %72 = getelementptr inbounds [4 x i16]* %71, i32 0, i64 %68, !dbg !9920 ; [#uses=1 type=i16*] [debug line = 146:11]
  %73 = load i32* %tPhi, align 4, !dbg !9920      ; [#uses=1 type=i32] [debug line = 146:11]
  %74 = sext i32 %73 to i64, !dbg !9920           ; [#uses=1 type=i64] [debug line = 146:11]
  %75 = load i32* %tEta, align 4, !dbg !9920      ; [#uses=1 type=i32] [debug line = 146:11]
  %76 = sext i32 %75 to i64, !dbg !9920           ; [#uses=1 type=i64] [debug line = 146:11]
  %77 = getelementptr inbounds [17 x [4 x i16]]* %preMergeTowerET, i32 0, i64 %76, !dbg !9920 ; [#uses=1 type=[4 x i16]*] [debug line = 146:11]
  %78 = getelementptr inbounds [4 x i16]* %77, i32 0, i64 %74, !dbg !9920 ; [#uses=1 type=i16*] [debug line = 146:11]
  %79 = load i32* %tPhi, align 4, !dbg !9920      ; [#uses=1 type=i32] [debug line = 146:11]
  %80 = sext i32 %79 to i64, !dbg !9920           ; [#uses=1 type=i64] [debug line = 146:11]
  %81 = load i32* %tEta, align 4, !dbg !9920      ; [#uses=1 type=i32] [debug line = 146:11]
  %82 = sext i32 %81 to i64, !dbg !9920           ; [#uses=1 type=i64] [debug line = 146:11]
  %83 = getelementptr inbounds [17 x [4 x i16]]* %preMergeClusterET, i32 0, i64 %82, !dbg !9920 ; [#uses=1 type=[4 x i16]*] [debug line = 146:11]
  %84 = getelementptr inbounds [4 x i16]* %83, i32 0, i64 %80, !dbg !9920 ; [#uses=1 type=i16*] [debug line = 146:11]
  %85 = call zeroext i1 @_Z18getClustersInTowerPA5_tPtS1_S1_S1_([5 x i16]* %60, i16* %66, i16* %72, i16* %78, i16* %84), !dbg !9920 ; [#uses=1 type=i1] [debug line = 146:11]
  br i1 %85, label %87, label %86, !dbg !9920     ; [debug line = 146:11]

; <label>:86                                      ; preds = %28
  store i1 false, i1* %1, !dbg !9921              ; [debug line = 152:9]
  br label %361, !dbg !9921                       ; [debug line = 152:9]

; <label>:87                                      ; preds = %28
  call void (...)* @_ssdm_RegionEnd(i8* getelementptr inbounds ([12 x i8]* @.str10, i32 0, i32 0)) nounwind, !dbg !9923 ; [debug line = 154:5]
  br label %88, !dbg !9923                        ; [debug line = 154:5]

; <label>:88                                      ; preds = %87
  %89 = load i32* %tPhi, align 4, !dbg !9924      ; [#uses=1 type=i32] [debug line = 140:43]
  %90 = add nsw i32 %89, 1, !dbg !9924            ; [#uses=1 type=i32] [debug line = 140:43]
  store i32 %90, i32* %tPhi, align 4, !dbg !9924  ; [debug line = 140:43]
  br label %25, !dbg !9924                        ; [debug line = 140:43]

; <label>:91                                      ; preds = %25
  call void (...)* @_ssdm_RegionEnd(i8* getelementptr inbounds ([12 x i8]* @.str9, i32 0, i32 0)) nounwind, !dbg !9925 ; [debug line = 155:3]
  br label %92, !dbg !9925                        ; [debug line = 155:3]

; <label>:92                                      ; preds = %91
  %93 = load i32* %tEta, align 4, !dbg !9926      ; [#uses=1 type=i32] [debug line = 138:43]
  %94 = add nsw i32 %93, 1, !dbg !9926            ; [#uses=1 type=i32] [debug line = 138:43]
  store i32 %94, i32* %tEta, align 4, !dbg !9926  ; [debug line = 138:43]
  br label %21, !dbg !9926                        ; [debug line = 138:43]

; <label>:95                                      ; preds = %21
  call void @llvm.dbg.declare(metadata !{i32* %tEta1}, metadata !9927), !dbg !9929 ; [debug line = 157:11] [debug variable = tEta]
  store i32 0, i32* %tEta1, align 4, !dbg !9930   ; [debug line = 157:19]
  br label %96, !dbg !9930                        ; [debug line = 157:19]

; <label>:96                                      ; preds = %357, %95
  %97 = load i32* %tEta1, align 4, !dbg !9930     ; [#uses=1 type=i32] [debug line = 157:19]
  %98 = icmp slt i32 %97, 17, !dbg !9930          ; [#uses=1 type=i1] [debug line = 157:19]
  br i1 %98, label %99, label %360, !dbg !9930    ; [debug line = 157:19]

; <label>:99                                      ; preds = %96
  call void (...)* @_ssdm_RegionBegin(i8* getelementptr inbounds ([13 x i8]* @.str11, i32 0, i32 0)) nounwind, !dbg !9931 ; [debug line = 157:53]
  call void (...)* @_ssdm_Unroll(i32 0, i32 0, i32 0, i8* getelementptr inbounds ([1 x i8]* @.str, i32 0, i32 0)) nounwind, !dbg !9933 ; [debug line = 158:1]
  call void @llvm.dbg.declare(metadata !{i32* %tPhi2}, metadata !9934), !dbg !9936 ; [debug line = 159:10] [debug variable = tPhi]
  store i32 0, i32* %tPhi2, align 4, !dbg !9937   ; [debug line = 159:18]
  br label %100, !dbg !9937                       ; [debug line = 159:18]

; <label>:100                                     ; preds = %353, %99
  %101 = load i32* %tPhi2, align 4, !dbg !9937    ; [#uses=1 type=i32] [debug line = 159:18]
  %102 = icmp slt i32 %101, 4, !dbg !9937         ; [#uses=1 type=i1] [debug line = 159:18]
  br i1 %102, label %103, label %356, !dbg !9937  ; [debug line = 159:18]

; <label>:103                                     ; preds = %100
  call void (...)* @_ssdm_RegionBegin(i8* getelementptr inbounds ([12 x i8]* @.str12, i32 0, i32 0)) nounwind, !dbg !9938 ; [debug line = 159:52]
  call void (...)* @_ssdm_Unroll(i32 0, i32 0, i32 0, i8* getelementptr inbounds ([1 x i8]* @.str, i32 0, i32 0)) nounwind, !dbg !9940 ; [debug line = 160:1]
  %104 = load i32* %tPhi2, align 4, !dbg !9941    ; [#uses=1 type=i32] [debug line = 161:2]
  %105 = sext i32 %104 to i64, !dbg !9941         ; [#uses=1 type=i64] [debug line = 161:2]
  %106 = load i32* %tEta1, align 4, !dbg !9941    ; [#uses=1 type=i32] [debug line = 161:2]
  %107 = sext i32 %106 to i64, !dbg !9941         ; [#uses=1 type=i64] [debug line = 161:2]
  %108 = getelementptr inbounds [17 x [4 x i16]]* %preMergePeakEta, i32 0, i64 %107, !dbg !9941 ; [#uses=1 type=[4 x i16]*] [debug line = 161:2]
  %109 = getelementptr inbounds [4 x i16]* %108, i32 0, i64 %105, !dbg !9941 ; [#uses=1 type=i16*] [debug line = 161:2]
  %110 = load i16* %109, align 2, !dbg !9941      ; [#uses=1 type=i16] [debug line = 161:2]
  %111 = load i32* %tPhi2, align 4, !dbg !9941    ; [#uses=1 type=i32] [debug line = 161:2]
  %112 = sext i32 %111 to i64, !dbg !9941         ; [#uses=1 type=i64] [debug line = 161:2]
  %113 = load i32* %tEta1, align 4, !dbg !9941    ; [#uses=1 type=i32] [debug line = 161:2]
  %114 = sext i32 %113 to i64, !dbg !9941         ; [#uses=1 type=i64] [debug line = 161:2]
  %115 = load [4 x i16]** %3, align 8, !dbg !9941 ; [#uses=1 type=[4 x i16]*] [debug line = 161:2]
  %116 = getelementptr inbounds [4 x i16]* %115, i64 %114, !dbg !9941 ; [#uses=1 type=[4 x i16]*] [debug line = 161:2]
  %117 = getelementptr inbounds [4 x i16]* %116, i32 0, i64 %112, !dbg !9941 ; [#uses=1 type=i16*] [debug line = 161:2]
  store i16 %110, i16* %117, align 2, !dbg !9941  ; [debug line = 161:2]
  %118 = load i32* %tPhi2, align 4, !dbg !9942    ; [#uses=1 type=i32] [debug line = 162:7]
  %119 = sext i32 %118 to i64, !dbg !9942         ; [#uses=1 type=i64] [debug line = 162:7]
  %120 = load i32* %tEta1, align 4, !dbg !9942    ; [#uses=1 type=i32] [debug line = 162:7]
  %121 = sext i32 %120 to i64, !dbg !9942         ; [#uses=1 type=i64] [debug line = 162:7]
  %122 = getelementptr inbounds [17 x [4 x i16]]* %preMergePeakPhi, i32 0, i64 %121, !dbg !9942 ; [#uses=1 type=[4 x i16]*] [debug line = 162:7]
  %123 = getelementptr inbounds [4 x i16]* %122, i32 0, i64 %119, !dbg !9942 ; [#uses=1 type=i16*] [debug line = 162:7]
  %124 = load i16* %123, align 2, !dbg !9942      ; [#uses=1 type=i16] [debug line = 162:7]
  %125 = load i32* %tPhi2, align 4, !dbg !9942    ; [#uses=1 type=i32] [debug line = 162:7]
  %126 = sext i32 %125 to i64, !dbg !9942         ; [#uses=1 type=i64] [debug line = 162:7]
  %127 = load i32* %tEta1, align 4, !dbg !9942    ; [#uses=1 type=i32] [debug line = 162:7]
  %128 = sext i32 %127 to i64, !dbg !9942         ; [#uses=1 type=i64] [debug line = 162:7]
  %129 = load [4 x i16]** %4, align 8, !dbg !9942 ; [#uses=1 type=[4 x i16]*] [debug line = 162:7]
  %130 = getelementptr inbounds [4 x i16]* %129, i64 %128, !dbg !9942 ; [#uses=1 type=[4 x i16]*] [debug line = 162:7]
  %131 = getelementptr inbounds [4 x i16]* %130, i32 0, i64 %126, !dbg !9942 ; [#uses=1 type=i16*] [debug line = 162:7]
  store i16 %124, i16* %131, align 2, !dbg !9942  ; [debug line = 162:7]
  %132 = load i32* %tPhi2, align 4, !dbg !9943    ; [#uses=1 type=i32] [debug line = 163:7]
  %133 = sext i32 %132 to i64, !dbg !9943         ; [#uses=1 type=i64] [debug line = 163:7]
  %134 = load i32* %tEta1, align 4, !dbg !9943    ; [#uses=1 type=i32] [debug line = 163:7]
  %135 = sext i32 %134 to i64, !dbg !9943         ; [#uses=1 type=i64] [debug line = 163:7]
  %136 = getelementptr inbounds [17 x [4 x i16]]* %preMergeTowerET, i32 0, i64 %135, !dbg !9943 ; [#uses=1 type=[4 x i16]*] [debug line = 163:7]
  %137 = getelementptr inbounds [4 x i16]* %136, i32 0, i64 %133, !dbg !9943 ; [#uses=1 type=i16*] [debug line = 163:7]
  %138 = load i16* %137, align 2, !dbg !9943      ; [#uses=1 type=i16] [debug line = 163:7]
  %139 = load i32* %tPhi2, align 4, !dbg !9943    ; [#uses=1 type=i32] [debug line = 163:7]
  %140 = sext i32 %139 to i64, !dbg !9943         ; [#uses=1 type=i64] [debug line = 163:7]
  %141 = load i32* %tEta1, align 4, !dbg !9943    ; [#uses=1 type=i32] [debug line = 163:7]
  %142 = sext i32 %141 to i64, !dbg !9943         ; [#uses=1 type=i64] [debug line = 163:7]
  %143 = load [4 x i16]** %5, align 8, !dbg !9943 ; [#uses=1 type=[4 x i16]*] [debug line = 163:7]
  %144 = getelementptr inbounds [4 x i16]* %143, i64 %142, !dbg !9943 ; [#uses=1 type=[4 x i16]*] [debug line = 163:7]
  %145 = getelementptr inbounds [4 x i16]* %144, i32 0, i64 %140, !dbg !9943 ; [#uses=1 type=i16*] [debug line = 163:7]
  store i16 %138, i16* %145, align 2, !dbg !9943  ; [debug line = 163:7]
  %146 = load i32* %tPhi2, align 4, !dbg !9944    ; [#uses=1 type=i32] [debug line = 164:7]
  %147 = sext i32 %146 to i64, !dbg !9944         ; [#uses=1 type=i64] [debug line = 164:7]
  %148 = load i32* %tEta1, align 4, !dbg !9944    ; [#uses=1 type=i32] [debug line = 164:7]
  %149 = sext i32 %148 to i64, !dbg !9944         ; [#uses=1 type=i64] [debug line = 164:7]
  %150 = getelementptr inbounds [17 x [4 x i16]]* %preMergeClusterET, i32 0, i64 %149, !dbg !9944 ; [#uses=1 type=[4 x i16]*] [debug line = 164:7]
  %151 = getelementptr inbounds [4 x i16]* %150, i32 0, i64 %147, !dbg !9944 ; [#uses=1 type=i16*] [debug line = 164:7]
  %152 = load i16* %151, align 2, !dbg !9944      ; [#uses=1 type=i16] [debug line = 164:7]
  %153 = load i32* %tPhi2, align 4, !dbg !9944    ; [#uses=1 type=i32] [debug line = 164:7]
  %154 = sext i32 %153 to i64, !dbg !9944         ; [#uses=1 type=i64] [debug line = 164:7]
  %155 = load i32* %tEta1, align 4, !dbg !9944    ; [#uses=1 type=i32] [debug line = 164:7]
  %156 = sext i32 %155 to i64, !dbg !9944         ; [#uses=1 type=i64] [debug line = 164:7]
  %157 = load [4 x i16]** %6, align 8, !dbg !9944 ; [#uses=1 type=[4 x i16]*] [debug line = 164:7]
  %158 = getelementptr inbounds [4 x i16]* %157, i64 %156, !dbg !9944 ; [#uses=1 type=[4 x i16]*] [debug line = 164:7]
  %159 = getelementptr inbounds [4 x i16]* %158, i32 0, i64 %154, !dbg !9944 ; [#uses=1 type=i16*] [debug line = 164:7]
  store i16 %152, i16* %159, align 2, !dbg !9944  ; [debug line = 164:7]
  call void @llvm.dbg.declare(metadata !{i32* %nEta}, metadata !9945), !dbg !9946 ; [debug line = 165:11] [debug variable = nEta]
  store i32 -1, i32* %nEta, align 4, !dbg !9947   ; [debug line = 165:20]
  call void @llvm.dbg.declare(metadata !{i32* %nPhi}, metadata !9948), !dbg !9949 ; [debug line = 166:11] [debug variable = nPhi]
  store i32 -1, i32* %nPhi, align 4, !dbg !9950   ; [debug line = 166:20]
  %160 = load i32* %tPhi2, align 4, !dbg !9951    ; [#uses=1 type=i32] [debug line = 167:7]
  %161 = sext i32 %160 to i64, !dbg !9951         ; [#uses=1 type=i64] [debug line = 167:7]
  %162 = load i32* %tEta1, align 4, !dbg !9951    ; [#uses=1 type=i32] [debug line = 167:7]
  %163 = sext i32 %162 to i64, !dbg !9951         ; [#uses=1 type=i64] [debug line = 167:7]
  %164 = getelementptr inbounds [17 x [4 x i16]]* %preMergePeakEta, i32 0, i64 %163, !dbg !9951 ; [#uses=1 type=[4 x i16]*] [debug line = 167:7]
  %165 = getelementptr inbounds [4 x i16]* %164, i32 0, i64 %161, !dbg !9951 ; [#uses=1 type=i16*] [debug line = 167:7]
  %166 = load i16* %165, align 2, !dbg !9951      ; [#uses=1 type=i16] [debug line = 167:7]
  %167 = zext i16 %166 to i32, !dbg !9951         ; [#uses=1 type=i32] [debug line = 167:7]
  %168 = icmp eq i32 %167, 0, !dbg !9951          ; [#uses=1 type=i1] [debug line = 167:7]
  br i1 %168, label %169, label %175, !dbg !9951  ; [debug line = 167:7]

; <label>:169                                     ; preds = %103
  %170 = load i32* %tEta1, align 4, !dbg !9951    ; [#uses=1 type=i32] [debug line = 167:7]
  %171 = icmp ne i32 %170, 0, !dbg !9951          ; [#uses=1 type=i1] [debug line = 167:7]
  br i1 %171, label %172, label %175, !dbg !9951  ; [debug line = 167:7]

; <label>:172                                     ; preds = %169
  %173 = load i32* %tEta1, align 4, !dbg !9952    ; [#uses=1 type=i32] [debug line = 167:57]
  %174 = sub nsw i32 %173, 1, !dbg !9952          ; [#uses=1 type=i32] [debug line = 167:57]
  store i32 %174, i32* %nEta, align 4, !dbg !9952 ; [debug line = 167:57]
  br label %175, !dbg !9952                       ; [debug line = 167:57]

; <label>:175                                     ; preds = %172, %169, %103
  %176 = load i32* %tPhi2, align 4, !dbg !9953    ; [#uses=1 type=i32] [debug line = 168:7]
  %177 = sext i32 %176 to i64, !dbg !9953         ; [#uses=1 type=i64] [debug line = 168:7]
  %178 = load i32* %tEta1, align 4, !dbg !9953    ; [#uses=1 type=i32] [debug line = 168:7]
  %179 = sext i32 %178 to i64, !dbg !9953         ; [#uses=1 type=i64] [debug line = 168:7]
  %180 = getelementptr inbounds [17 x [4 x i16]]* %preMergePeakEta, i32 0, i64 %179, !dbg !9953 ; [#uses=1 type=[4 x i16]*] [debug line = 168:7]
  %181 = getelementptr inbounds [4 x i16]* %180, i32 0, i64 %177, !dbg !9953 ; [#uses=1 type=i16*] [debug line = 168:7]
  %182 = load i16* %181, align 2, !dbg !9953      ; [#uses=1 type=i16] [debug line = 168:7]
  %183 = zext i16 %182 to i32, !dbg !9953         ; [#uses=1 type=i32] [debug line = 168:7]
  %184 = icmp eq i32 %183, 4, !dbg !9953          ; [#uses=1 type=i1] [debug line = 168:7]
  br i1 %184, label %185, label %191, !dbg !9953  ; [debug line = 168:7]

; <label>:185                                     ; preds = %175
  %186 = load i32* %tEta1, align 4, !dbg !9953    ; [#uses=1 type=i32] [debug line = 168:7]
  %187 = icmp ne i32 %186, 16, !dbg !9953         ; [#uses=1 type=i1] [debug line = 168:7]
  br i1 %187, label %188, label %191, !dbg !9953  ; [debug line = 168:7]

; <label>:188                                     ; preds = %185
  %189 = load i32* %tEta1, align 4, !dbg !9954    ; [#uses=1 type=i32] [debug line = 168:71]
  %190 = add nsw i32 %189, 1, !dbg !9954          ; [#uses=1 type=i32] [debug line = 168:71]
  store i32 %190, i32* %nEta, align 4, !dbg !9954 ; [debug line = 168:71]
  br label %191, !dbg !9954                       ; [debug line = 168:71]

; <label>:191                                     ; preds = %188, %185, %175
  %192 = load i32* %tPhi2, align 4, !dbg !9955    ; [#uses=1 type=i32] [debug line = 169:7]
  %193 = sext i32 %192 to i64, !dbg !9955         ; [#uses=1 type=i64] [debug line = 169:7]
  %194 = load i32* %tEta1, align 4, !dbg !9955    ; [#uses=1 type=i32] [debug line = 169:7]
  %195 = sext i32 %194 to i64, !dbg !9955         ; [#uses=1 type=i64] [debug line = 169:7]
  %196 = getelementptr inbounds [17 x [4 x i16]]* %preMergePeakPhi, i32 0, i64 %195, !dbg !9955 ; [#uses=1 type=[4 x i16]*] [debug line = 169:7]
  %197 = getelementptr inbounds [4 x i16]* %196, i32 0, i64 %193, !dbg !9955 ; [#uses=1 type=i16*] [debug line = 169:7]
  %198 = load i16* %197, align 2, !dbg !9955      ; [#uses=1 type=i16] [debug line = 169:7]
  %199 = zext i16 %198 to i32, !dbg !9955         ; [#uses=1 type=i32] [debug line = 169:7]
  %200 = icmp eq i32 %199, 0, !dbg !9955          ; [#uses=1 type=i1] [debug line = 169:7]
  br i1 %200, label %201, label %207, !dbg !9955  ; [debug line = 169:7]

; <label>:201                                     ; preds = %191
  %202 = load i32* %tPhi2, align 4, !dbg !9955    ; [#uses=1 type=i32] [debug line = 169:7]
  %203 = icmp ne i32 %202, 0, !dbg !9955          ; [#uses=1 type=i1] [debug line = 169:7]
  br i1 %203, label %204, label %207, !dbg !9955  ; [debug line = 169:7]

; <label>:204                                     ; preds = %201
  %205 = load i32* %tPhi2, align 4, !dbg !9956    ; [#uses=1 type=i32] [debug line = 169:57]
  %206 = sub nsw i32 %205, 1, !dbg !9956          ; [#uses=1 type=i32] [debug line = 169:57]
  store i32 %206, i32* %nPhi, align 4, !dbg !9956 ; [debug line = 169:57]
  br label %207, !dbg !9956                       ; [debug line = 169:57]

; <label>:207                                     ; preds = %204, %201, %191
  %208 = load i32* %tPhi2, align 4, !dbg !9957    ; [#uses=1 type=i32] [debug line = 170:7]
  %209 = sext i32 %208 to i64, !dbg !9957         ; [#uses=1 type=i64] [debug line = 170:7]
  %210 = load i32* %tEta1, align 4, !dbg !9957    ; [#uses=1 type=i32] [debug line = 170:7]
  %211 = sext i32 %210 to i64, !dbg !9957         ; [#uses=1 type=i64] [debug line = 170:7]
  %212 = getelementptr inbounds [17 x [4 x i16]]* %preMergePeakPhi, i32 0, i64 %211, !dbg !9957 ; [#uses=1 type=[4 x i16]*] [debug line = 170:7]
  %213 = getelementptr inbounds [4 x i16]* %212, i32 0, i64 %209, !dbg !9957 ; [#uses=1 type=i16*] [debug line = 170:7]
  %214 = load i16* %213, align 2, !dbg !9957      ; [#uses=1 type=i16] [debug line = 170:7]
  %215 = zext i16 %214 to i32, !dbg !9957         ; [#uses=1 type=i32] [debug line = 170:7]
  %216 = icmp eq i32 %215, 4, !dbg !9957          ; [#uses=1 type=i1] [debug line = 170:7]
  br i1 %216, label %217, label %223, !dbg !9957  ; [debug line = 170:7]

; <label>:217                                     ; preds = %207
  %218 = load i32* %tPhi2, align 4, !dbg !9957    ; [#uses=1 type=i32] [debug line = 170:7]
  %219 = icmp ne i32 %218, 3, !dbg !9957          ; [#uses=1 type=i1] [debug line = 170:7]
  br i1 %219, label %220, label %223, !dbg !9957  ; [debug line = 170:7]

; <label>:220                                     ; preds = %217
  %221 = load i32* %tPhi2, align 4, !dbg !9958    ; [#uses=1 type=i32] [debug line = 170:70]
  %222 = add nsw i32 %221, 1, !dbg !9958          ; [#uses=1 type=i32] [debug line = 170:70]
  store i32 %222, i32* %nPhi, align 4, !dbg !9958 ; [debug line = 170:70]
  br label %223, !dbg !9958                       ; [debug line = 170:70]

; <label>:223                                     ; preds = %220, %217, %207
  %224 = load i32* %nEta, align 4, !dbg !9959     ; [#uses=1 type=i32] [debug line = 171:7]
  %225 = icmp sge i32 %224, 0, !dbg !9959         ; [#uses=1 type=i1] [debug line = 171:7]
  br i1 %225, label %226, label %351, !dbg !9959  ; [debug line = 171:7]

; <label>:226                                     ; preds = %223
  %227 = load i32* %nEta, align 4, !dbg !9959     ; [#uses=1 type=i32] [debug line = 171:7]
  %228 = icmp slt i32 %227, 17, !dbg !9959        ; [#uses=1 type=i1] [debug line = 171:7]
  br i1 %228, label %229, label %351, !dbg !9959  ; [debug line = 171:7]

; <label>:229                                     ; preds = %226
  %230 = load i32* %nPhi, align 4, !dbg !9959     ; [#uses=1 type=i32] [debug line = 171:7]
  %231 = icmp sge i32 %230, 0, !dbg !9959         ; [#uses=1 type=i1] [debug line = 171:7]
  br i1 %231, label %232, label %351, !dbg !9959  ; [debug line = 171:7]

; <label>:232                                     ; preds = %229
  %233 = load i32* %nPhi, align 4, !dbg !9959     ; [#uses=1 type=i32] [debug line = 171:7]
  %234 = icmp slt i32 %233, 4, !dbg !9959         ; [#uses=1 type=i1] [debug line = 171:7]
  br i1 %234, label %235, label %351, !dbg !9959  ; [debug line = 171:7]

; <label>:235                                     ; preds = %232
  %236 = load i32* %tPhi2, align 4, !dbg !9960    ; [#uses=1 type=i32] [debug line = 172:13]
  %237 = sext i32 %236 to i64, !dbg !9960         ; [#uses=1 type=i64] [debug line = 172:13]
  %238 = load i32* %tEta1, align 4, !dbg !9960    ; [#uses=1 type=i32] [debug line = 172:13]
  %239 = sext i32 %238 to i64, !dbg !9960         ; [#uses=1 type=i64] [debug line = 172:13]
  %240 = getelementptr inbounds [17 x [4 x i16]]* %preMergePeakEta, i32 0, i64 %239, !dbg !9960 ; [#uses=1 type=[4 x i16]*] [debug line = 172:13]
  %241 = getelementptr inbounds [4 x i16]* %240, i32 0, i64 %237, !dbg !9960 ; [#uses=1 type=i16*] [debug line = 172:13]
  %242 = load i16* %241, align 2, !dbg !9960      ; [#uses=1 type=i16] [debug line = 172:13]
  %243 = load i32* %tPhi2, align 4, !dbg !9960    ; [#uses=1 type=i32] [debug line = 172:13]
  %244 = sext i32 %243 to i64, !dbg !9960         ; [#uses=1 type=i64] [debug line = 172:13]
  %245 = load i32* %tEta1, align 4, !dbg !9960    ; [#uses=1 type=i32] [debug line = 172:13]
  %246 = sext i32 %245 to i64, !dbg !9960         ; [#uses=1 type=i64] [debug line = 172:13]
  %247 = getelementptr inbounds [17 x [4 x i16]]* %preMergePeakPhi, i32 0, i64 %246, !dbg !9960 ; [#uses=1 type=[4 x i16]*] [debug line = 172:13]
  %248 = getelementptr inbounds [4 x i16]* %247, i32 0, i64 %244, !dbg !9960 ; [#uses=1 type=i16*] [debug line = 172:13]
  %249 = load i16* %248, align 2, !dbg !9960      ; [#uses=1 type=i16] [debug line = 172:13]
  %250 = load i32* %tPhi2, align 4, !dbg !9960    ; [#uses=1 type=i32] [debug line = 172:13]
  %251 = sext i32 %250 to i64, !dbg !9960         ; [#uses=1 type=i64] [debug line = 172:13]
  %252 = load i32* %tEta1, align 4, !dbg !9960    ; [#uses=1 type=i32] [debug line = 172:13]
  %253 = sext i32 %252 to i64, !dbg !9960         ; [#uses=1 type=i64] [debug line = 172:13]
  %254 = getelementptr inbounds [17 x [4 x i16]]* %preMergeTowerET, i32 0, i64 %253, !dbg !9960 ; [#uses=1 type=[4 x i16]*] [debug line = 172:13]
  %255 = getelementptr inbounds [4 x i16]* %254, i32 0, i64 %251, !dbg !9960 ; [#uses=1 type=i16*] [debug line = 172:13]
  %256 = load i16* %255, align 2, !dbg !9960      ; [#uses=1 type=i16] [debug line = 172:13]
  %257 = load i32* %tPhi2, align 4, !dbg !9960    ; [#uses=1 type=i32] [debug line = 172:13]
  %258 = sext i32 %257 to i64, !dbg !9960         ; [#uses=1 type=i64] [debug line = 172:13]
  %259 = load i32* %tEta1, align 4, !dbg !9960    ; [#uses=1 type=i32] [debug line = 172:13]
  %260 = sext i32 %259 to i64, !dbg !9960         ; [#uses=1 type=i64] [debug line = 172:13]
  %261 = getelementptr inbounds [17 x [4 x i16]]* %preMergeClusterET, i32 0, i64 %260, !dbg !9960 ; [#uses=1 type=[4 x i16]*] [debug line = 172:13]
  %262 = getelementptr inbounds [4 x i16]* %261, i32 0, i64 %258, !dbg !9960 ; [#uses=1 type=i16*] [debug line = 172:13]
  %263 = load i16* %262, align 2, !dbg !9960      ; [#uses=1 type=i16] [debug line = 172:13]
  %264 = load i32* %nPhi, align 4, !dbg !9960     ; [#uses=1 type=i32] [debug line = 172:13]
  %265 = sext i32 %264 to i64, !dbg !9960         ; [#uses=1 type=i64] [debug line = 172:13]
  %266 = load i32* %nEta, align 4, !dbg !9960     ; [#uses=1 type=i32] [debug line = 172:13]
  %267 = sext i32 %266 to i64, !dbg !9960         ; [#uses=1 type=i64] [debug line = 172:13]
  %268 = getelementptr inbounds [17 x [4 x i16]]* %preMergePeakEta, i32 0, i64 %267, !dbg !9960 ; [#uses=1 type=[4 x i16]*] [debug line = 172:13]
  %269 = getelementptr inbounds [4 x i16]* %268, i32 0, i64 %265, !dbg !9960 ; [#uses=1 type=i16*] [debug line = 172:13]
  %270 = load i16* %269, align 2, !dbg !9960      ; [#uses=1 type=i16] [debug line = 172:13]
  %271 = load i32* %nPhi, align 4, !dbg !9960     ; [#uses=1 type=i32] [debug line = 172:13]
  %272 = sext i32 %271 to i64, !dbg !9960         ; [#uses=1 type=i64] [debug line = 172:13]
  %273 = load i32* %nEta, align 4, !dbg !9960     ; [#uses=1 type=i32] [debug line = 172:13]
  %274 = sext i32 %273 to i64, !dbg !9960         ; [#uses=1 type=i64] [debug line = 172:13]
  %275 = getelementptr inbounds [17 x [4 x i16]]* %preMergePeakPhi, i32 0, i64 %274, !dbg !9960 ; [#uses=1 type=[4 x i16]*] [debug line = 172:13]
  %276 = getelementptr inbounds [4 x i16]* %275, i32 0, i64 %272, !dbg !9960 ; [#uses=1 type=i16*] [debug line = 172:13]
  %277 = load i16* %276, align 2, !dbg !9960      ; [#uses=1 type=i16] [debug line = 172:13]
  %278 = load i32* %nPhi, align 4, !dbg !9960     ; [#uses=1 type=i32] [debug line = 172:13]
  %279 = sext i32 %278 to i64, !dbg !9960         ; [#uses=1 type=i64] [debug line = 172:13]
  %280 = load i32* %nEta, align 4, !dbg !9960     ; [#uses=1 type=i32] [debug line = 172:13]
  %281 = sext i32 %280 to i64, !dbg !9960         ; [#uses=1 type=i64] [debug line = 172:13]
  %282 = getelementptr inbounds [17 x [4 x i16]]* %preMergeTowerET, i32 0, i64 %281, !dbg !9960 ; [#uses=1 type=[4 x i16]*] [debug line = 172:13]
  %283 = getelementptr inbounds [4 x i16]* %282, i32 0, i64 %279, !dbg !9960 ; [#uses=1 type=i16*] [debug line = 172:13]
  %284 = load i16* %283, align 2, !dbg !9960      ; [#uses=1 type=i16] [debug line = 172:13]
  %285 = load i32* %nPhi, align 4, !dbg !9960     ; [#uses=1 type=i32] [debug line = 172:13]
  %286 = sext i32 %285 to i64, !dbg !9960         ; [#uses=1 type=i64] [debug line = 172:13]
  %287 = load i32* %nEta, align 4, !dbg !9960     ; [#uses=1 type=i32] [debug line = 172:13]
  %288 = sext i32 %287 to i64, !dbg !9960         ; [#uses=1 type=i64] [debug line = 172:13]
  %289 = getelementptr inbounds [17 x [4 x i16]]* %preMergeClusterET, i32 0, i64 %288, !dbg !9960 ; [#uses=1 type=[4 x i16]*] [debug line = 172:13]
  %290 = getelementptr inbounds [4 x i16]* %289, i32 0, i64 %286, !dbg !9960 ; [#uses=1 type=i16*] [debug line = 172:13]
  %291 = load i16* %290, align 2, !dbg !9960      ; [#uses=1 type=i16] [debug line = 172:13]
  %292 = load i32* %tPhi2, align 4, !dbg !9960    ; [#uses=1 type=i32] [debug line = 172:13]
  %293 = sext i32 %292 to i64, !dbg !9960         ; [#uses=1 type=i64] [debug line = 172:13]
  %294 = load i32* %tEta1, align 4, !dbg !9960    ; [#uses=1 type=i32] [debug line = 172:13]
  %295 = sext i32 %294 to i64, !dbg !9960         ; [#uses=1 type=i64] [debug line = 172:13]
  %296 = load [4 x i16]** %3, align 8, !dbg !9960 ; [#uses=1 type=[4 x i16]*] [debug line = 172:13]
  %297 = getelementptr inbounds [4 x i16]* %296, i64 %295, !dbg !9960 ; [#uses=1 type=[4 x i16]*] [debug line = 172:13]
  %298 = getelementptr inbounds [4 x i16]* %297, i32 0, i64 %293, !dbg !9960 ; [#uses=1 type=i16*] [debug line = 172:13]
  %299 = load i32* %tPhi2, align 4, !dbg !9960    ; [#uses=1 type=i32] [debug line = 172:13]
  %300 = sext i32 %299 to i64, !dbg !9960         ; [#uses=1 type=i64] [debug line = 172:13]
  %301 = load i32* %tEta1, align 4, !dbg !9960    ; [#uses=1 type=i32] [debug line = 172:13]
  %302 = sext i32 %301 to i64, !dbg !9960         ; [#uses=1 type=i64] [debug line = 172:13]
  %303 = load [4 x i16]** %4, align 8, !dbg !9960 ; [#uses=1 type=[4 x i16]*] [debug line = 172:13]
  %304 = getelementptr inbounds [4 x i16]* %303, i64 %302, !dbg !9960 ; [#uses=1 type=[4 x i16]*] [debug line = 172:13]
  %305 = getelementptr inbounds [4 x i16]* %304, i32 0, i64 %300, !dbg !9960 ; [#uses=1 type=i16*] [debug line = 172:13]
  %306 = load i32* %tPhi2, align 4, !dbg !9960    ; [#uses=1 type=i32] [debug line = 172:13]
  %307 = sext i32 %306 to i64, !dbg !9960         ; [#uses=1 type=i64] [debug line = 172:13]
  %308 = load i32* %tEta1, align 4, !dbg !9960    ; [#uses=1 type=i32] [debug line = 172:13]
  %309 = sext i32 %308 to i64, !dbg !9960         ; [#uses=1 type=i64] [debug line = 172:13]
  %310 = load [4 x i16]** %5, align 8, !dbg !9960 ; [#uses=1 type=[4 x i16]*] [debug line = 172:13]
  %311 = getelementptr inbounds [4 x i16]* %310, i64 %309, !dbg !9960 ; [#uses=1 type=[4 x i16]*] [debug line = 172:13]
  %312 = getelementptr inbounds [4 x i16]* %311, i32 0, i64 %307, !dbg !9960 ; [#uses=1 type=i16*] [debug line = 172:13]
  %313 = load i32* %tPhi2, align 4, !dbg !9960    ; [#uses=1 type=i32] [debug line = 172:13]
  %314 = sext i32 %313 to i64, !dbg !9960         ; [#uses=1 type=i64] [debug line = 172:13]
  %315 = load i32* %tEta1, align 4, !dbg !9960    ; [#uses=1 type=i32] [debug line = 172:13]
  %316 = sext i32 %315 to i64, !dbg !9960         ; [#uses=1 type=i64] [debug line = 172:13]
  %317 = load [4 x i16]** %6, align 8, !dbg !9960 ; [#uses=1 type=[4 x i16]*] [debug line = 172:13]
  %318 = getelementptr inbounds [4 x i16]* %317, i64 %316, !dbg !9960 ; [#uses=1 type=[4 x i16]*] [debug line = 172:13]
  %319 = getelementptr inbounds [4 x i16]* %318, i32 0, i64 %314, !dbg !9960 ; [#uses=1 type=i16*] [debug line = 172:13]
  %320 = load i32* %nPhi, align 4, !dbg !9960     ; [#uses=1 type=i32] [debug line = 172:13]
  %321 = sext i32 %320 to i64, !dbg !9960         ; [#uses=1 type=i64] [debug line = 172:13]
  %322 = load i32* %nEta, align 4, !dbg !9960     ; [#uses=1 type=i32] [debug line = 172:13]
  %323 = sext i32 %322 to i64, !dbg !9960         ; [#uses=1 type=i64] [debug line = 172:13]
  %324 = load [4 x i16]** %3, align 8, !dbg !9960 ; [#uses=1 type=[4 x i16]*] [debug line = 172:13]
  %325 = getelementptr inbounds [4 x i16]* %324, i64 %323, !dbg !9960 ; [#uses=1 type=[4 x i16]*] [debug line = 172:13]
  %326 = getelementptr inbounds [4 x i16]* %325, i32 0, i64 %321, !dbg !9960 ; [#uses=1 type=i16*] [debug line = 172:13]
  %327 = load i32* %nPhi, align 4, !dbg !9960     ; [#uses=1 type=i32] [debug line = 172:13]
  %328 = sext i32 %327 to i64, !dbg !9960         ; [#uses=1 type=i64] [debug line = 172:13]
  %329 = load i32* %nEta, align 4, !dbg !9960     ; [#uses=1 type=i32] [debug line = 172:13]
  %330 = sext i32 %329 to i64, !dbg !9960         ; [#uses=1 type=i64] [debug line = 172:13]
  %331 = load [4 x i16]** %4, align 8, !dbg !9960 ; [#uses=1 type=[4 x i16]*] [debug line = 172:13]
  %332 = getelementptr inbounds [4 x i16]* %331, i64 %330, !dbg !9960 ; [#uses=1 type=[4 x i16]*] [debug line = 172:13]
  %333 = getelementptr inbounds [4 x i16]* %332, i32 0, i64 %328, !dbg !9960 ; [#uses=1 type=i16*] [debug line = 172:13]
  %334 = load i32* %nPhi, align 4, !dbg !9960     ; [#uses=1 type=i32] [debug line = 172:13]
  %335 = sext i32 %334 to i64, !dbg !9960         ; [#uses=1 type=i64] [debug line = 172:13]
  %336 = load i32* %nEta, align 4, !dbg !9960     ; [#uses=1 type=i32] [debug line = 172:13]
  %337 = sext i32 %336 to i64, !dbg !9960         ; [#uses=1 type=i64] [debug line = 172:13]
  %338 = load [4 x i16]** %5, align 8, !dbg !9960 ; [#uses=1 type=[4 x i16]*] [debug line = 172:13]
  %339 = getelementptr inbounds [4 x i16]* %338, i64 %337, !dbg !9960 ; [#uses=1 type=[4 x i16]*] [debug line = 172:13]
  %340 = getelementptr inbounds [4 x i16]* %339, i32 0, i64 %335, !dbg !9960 ; [#uses=1 type=i16*] [debug line = 172:13]
  %341 = load i32* %nPhi, align 4, !dbg !9960     ; [#uses=1 type=i32] [debug line = 172:13]
  %342 = sext i32 %341 to i64, !dbg !9960         ; [#uses=1 type=i64] [debug line = 172:13]
  %343 = load i32* %nEta, align 4, !dbg !9960     ; [#uses=1 type=i32] [debug line = 172:13]
  %344 = sext i32 %343 to i64, !dbg !9960         ; [#uses=1 type=i64] [debug line = 172:13]
  %345 = load [4 x i16]** %6, align 8, !dbg !9960 ; [#uses=1 type=[4 x i16]*] [debug line = 172:13]
  %346 = getelementptr inbounds [4 x i16]* %345, i64 %344, !dbg !9960 ; [#uses=1 type=[4 x i16]*] [debug line = 172:13]
  %347 = getelementptr inbounds [4 x i16]* %346, i32 0, i64 %342, !dbg !9960 ; [#uses=1 type=i16*] [debug line = 172:13]
  %348 = call zeroext i1 @_Z13mergeClustersttttttttPtS_S_S_S_S_S_S_(i16 zeroext %242, i16 zeroext %249, i16 zeroext %256, i16 zeroext %263, i16 zeroext %270, i16 zeroext %277, i16 zeroext %284, i16 zeroext %291, i16* %298, i16* %305, i16* %312, i16* %319, i16* %326, i16* %333, i16* %340, i16* %347), !dbg !9960 ; [#uses=1 type=i1] [debug line = 172:13]
  br i1 %348, label %350, label %349, !dbg !9960  ; [debug line = 172:13]

; <label>:349                                     ; preds = %235
  store i1 false, i1* %1, !dbg !9962              ; [debug line = 187:52]
  br label %361, !dbg !9962                       ; [debug line = 187:52]

; <label>:350                                     ; preds = %235
  br label %352, !dbg !9963                       ; [debug line = 188:7]

; <label>:351                                     ; preds = %232, %229, %226, %223
  br label %353, !dbg !9964                       ; [debug line = 190:9]

; <label>:352                                     ; preds = %350
  call void (...)* @_ssdm_RegionEnd(i8* getelementptr inbounds ([12 x i8]* @.str12, i32 0, i32 0)) nounwind, !dbg !9966 ; [debug line = 192:5]
  br label %353, !dbg !9966                       ; [debug line = 192:5]

; <label>:353                                     ; preds = %352, %351
  %354 = load i32* %tPhi2, align 4, !dbg !9967    ; [#uses=1 type=i32] [debug line = 159:43]
  %355 = add nsw i32 %354, 1, !dbg !9967          ; [#uses=1 type=i32] [debug line = 159:43]
  store i32 %355, i32* %tPhi2, align 4, !dbg !9967 ; [debug line = 159:43]
  br label %100, !dbg !9967                       ; [debug line = 159:43]

; <label>:356                                     ; preds = %100
  call void (...)* @_ssdm_RegionEnd(i8* getelementptr inbounds ([13 x i8]* @.str11, i32 0, i32 0)) nounwind, !dbg !9968 ; [debug line = 193:3]
  br label %357, !dbg !9968                       ; [debug line = 193:3]

; <label>:357                                     ; preds = %356
  %358 = load i32* %tEta1, align 4, !dbg !9969    ; [#uses=1 type=i32] [debug line = 157:44]
  %359 = add nsw i32 %358, 1, !dbg !9969          ; [#uses=1 type=i32] [debug line = 157:44]
  store i32 %359, i32* %tEta1, align 4, !dbg !9969 ; [debug line = 157:44]
  br label %96, !dbg !9969                        ; [debug line = 157:44]

; <label>:360                                     ; preds = %96
  store i1 true, i1* %1, !dbg !9970               ; [debug line = 194:3]
  br label %361, !dbg !9970                       ; [debug line = 194:3]

; <label>:361                                     ; preds = %360, %349, %86
  %362 = load i1* %1, !dbg !9971                  ; [#uses=1 type=i1] [debug line = 195:1]
  ret i1 %362, !dbg !9971                         ; [debug line = 195:1]
}

; [#uses=1]
define internal void @__cxx_global_var_init() nounwind section ".text.startup" {
  call void @_ZN44ssdm_global_array_ClusterFinderpp0ccaplineccC1Ev(%class.ssdm_global_array_ClusterFinderpp0ccaplinecc* @_ZL21ssdm_global_array_ins)
  ret void
}

; [#uses=1]
define linkonce_odr void @_ZN44ssdm_global_array_ClusterFinderpp0ccaplineccC1Ev(%class.ssdm_global_array_ClusterFinderpp0ccaplinecc* %this) unnamed_addr nounwind uwtable inlinehint alwaysinline align 2 {
  %1 = alloca %class.ssdm_global_array_ClusterFinderpp0ccaplinecc*, align 8 ; [#uses=2 type=%class.ssdm_global_array_ClusterFinderpp0ccaplinecc**]
  store %class.ssdm_global_array_ClusterFinderpp0ccaplinecc* %this, %class.ssdm_global_array_ClusterFinderpp0ccaplinecc** %1, align 8
  call void @llvm.dbg.declare(metadata !{%class.ssdm_global_array_ClusterFinderpp0ccaplinecc** %1}, metadata !9972), !dbg !9974 ; [debug line = 199:42] [debug variable = this]
  %2 = load %class.ssdm_global_array_ClusterFinderpp0ccaplinecc** %1 ; [#uses=1 type=%class.ssdm_global_array_ClusterFinderpp0ccaplinecc*]
  call void @_ZN44ssdm_global_array_ClusterFinderpp0ccaplineccC2Ev(%class.ssdm_global_array_ClusterFinderpp0ccaplinecc* %2), !dbg !9975 ; [debug line = 206:3]
  ret void, !dbg !9975                            ; [debug line = 206:3]
}

; [#uses=1]
define linkonce_odr void @_ZN44ssdm_global_array_ClusterFinderpp0ccaplineccC2Ev(%class.ssdm_global_array_ClusterFinderpp0ccaplinecc* %this) unnamed_addr nounwind uwtable inlinehint alwaysinline align 2 {
  %1 = alloca %class.ssdm_global_array_ClusterFinderpp0ccaplinecc*, align 8 ; [#uses=2 type=%class.ssdm_global_array_ClusterFinderpp0ccaplinecc**]
  store %class.ssdm_global_array_ClusterFinderpp0ccaplinecc* %this, %class.ssdm_global_array_ClusterFinderpp0ccaplinecc** %1, align 8
  call void @llvm.dbg.declare(metadata !{%class.ssdm_global_array_ClusterFinderpp0ccaplinecc** %1}, metadata !9976), !dbg !9977 ; [debug line = 199:42] [debug variable = this]
  %2 = load %class.ssdm_global_array_ClusterFinderpp0ccaplinecc** %1 ; [#uses=0 type=%class.ssdm_global_array_ClusterFinderpp0ccaplinecc*]
  call void (...)* @_ssdm_SpecConstant(i16* @_ZL16NCaloLayer1Cards) nounwind, !dbg !9978 ; [debug line = 200:4]
  call void (...)* @_ssdm_SpecConstant(i16* @_ZL14NCaloLayer1Eta) nounwind, !dbg !9980 ; [debug line = 201:4]
  call void (...)* @_ssdm_SpecConstant(i16* @_ZL14NCaloLayer1Phi) nounwind, !dbg !9981 ; [debug line = 202:4]
  call void (...)* @_ssdm_SpecConstant(i16* @_ZL18NCrystalsPerEtaPhi) nounwind, !dbg !9982 ; [debug line = 203:4]
  call void (...)* @_ssdm_SpecConstant(i16* @_ZL14NCrystalsInPhi) nounwind, !dbg !9983 ; [debug line = 204:4]
  call void (...)* @_ssdm_SpecConstant(i16* @_ZL14NCrystalsInEta) nounwind, !dbg !9984 ; [debug line = 205:4]
  ret void, !dbg !9985                            ; [debug line = 206:3]
}

; [#uses=29]
declare void @_ssdm_SpecConstant(...) nounwind

; [#uses=1]
define internal void @_GLOBAL__I_a() nounwind section ".text.startup" {
  call void @__cxx_global_var_init()
  ret void
}

; [#uses=1]
define internal void @__cxx_global_var_init33() nounwind section ".text.startup" {
  call void @_ZNSt8ios_base4InitC1Ev(%"class.std::ios_base::Init"* @_ZStL8__ioinit)
  %1 = call i32 @atexit(void ()* @__dtor__ZStL8__ioinit) ; [#uses=0 type=i32]
  ret void
}

; [#uses=1]
declare void @_ZNSt8ios_base4InitC1Ev(%"class.std::ios_base::Init"*)

; [#uses=1]
declare void @_ZNSt8ios_base4InitD1Ev(%"class.std::ios_base::Init"*)

; [#uses=1]
define internal void @__dtor__ZStL8__ioinit() nounwind section ".text.startup" {
  call void @_ZNSt8ios_base4InitD1Ev(%"class.std::ios_base::Init"* @_ZStL8__ioinit)
  ret void
}

; [#uses=1]
declare i32 @atexit(void ()*) nounwind

; [#uses=1]
define internal void @__cxx_global_var_init1() nounwind section ".text.startup" {
  call void @_ZN9ap_ufixedILi10ELi2EL9ap_q_mode5EL9ap_o_mode3ELi0EEC1Ed(%struct.ap_ufixed* @_ZL14conv_track_eta, double 2.881355e-01)
  ret void
}

; [#uses=1]
define linkonce_odr void @_ZN9ap_ufixedILi10ELi2EL9ap_q_mode5EL9ap_o_mode3ELi0EEC1Ed(%struct.ap_ufixed* %this, double %v) unnamed_addr nounwind uwtable inlinehint alwaysinline align 2 {
  %1 = alloca %struct.ap_ufixed*, align 8         ; [#uses=2 type=%struct.ap_ufixed**]
  %2 = alloca double, align 8                     ; [#uses=2 type=double*]
  store %struct.ap_ufixed* %this, %struct.ap_ufixed** %1, align 8
  call void @llvm.dbg.declare(metadata !{%struct.ap_ufixed** %1}, metadata !9986), !dbg !9988 ; [debug line = 496:43] [debug variable = this]
  store double %v, double* %2, align 8
  call void @llvm.dbg.declare(metadata !{double* %2}, metadata !9989), !dbg !9990 ; [debug line = 496:60] [debug variable = v]
  %3 = load %struct.ap_ufixed** %1                ; [#uses=1 type=%struct.ap_ufixed*]
  %4 = load double* %2, align 8, !dbg !9991       ; [#uses=1 type=double] [debug line = 496:72]
  call void @_ZN9ap_ufixedILi10ELi2EL9ap_q_mode5EL9ap_o_mode3ELi0EEC2Ed(%struct.ap_ufixed* %3, double %4), !dbg !9991 ; [debug line = 496:72]
  ret void, !dbg !9991                            ; [debug line = 496:72]
}

; [#uses=1]
define internal void @__cxx_global_var_init2() nounwind section ".text.startup" {
  call void @_ZN9ap_ufixedILi16ELi2EL9ap_q_mode5EL9ap_o_mode3ELi0EEC1Ed(%struct.ap_ufixed.0* @_ZL14conv_track_phi, double 5.729600e-03)
  ret void
}

; [#uses=1]
define linkonce_odr void @_ZN9ap_ufixedILi16ELi2EL9ap_q_mode5EL9ap_o_mode3ELi0EEC1Ed(%struct.ap_ufixed.0* %this, double %v) unnamed_addr nounwind uwtable inlinehint alwaysinline align 2 {
  %1 = alloca %struct.ap_ufixed.0*, align 8       ; [#uses=2 type=%struct.ap_ufixed.0**]
  %2 = alloca double, align 8                     ; [#uses=2 type=double*]
  store %struct.ap_ufixed.0* %this, %struct.ap_ufixed.0** %1, align 8
  call void @llvm.dbg.declare(metadata !{%struct.ap_ufixed.0** %1}, metadata !9992), !dbg !9994 ; [debug line = 496:43] [debug variable = this]
  store double %v, double* %2, align 8
  call void @llvm.dbg.declare(metadata !{double* %2}, metadata !9995), !dbg !9996 ; [debug line = 496:60] [debug variable = v]
  %3 = load %struct.ap_ufixed.0** %1              ; [#uses=1 type=%struct.ap_ufixed.0*]
  %4 = load double* %2, align 8, !dbg !9997       ; [#uses=1 type=double] [debug line = 496:72]
  call void @_ZN9ap_ufixedILi16ELi2EL9ap_q_mode5EL9ap_o_mode3ELi0EEC2Ed(%struct.ap_ufixed.0* %3, double %4), !dbg !9997 ; [debug line = 496:72]
  ret void, !dbg !9997                            ; [debug line = 496:72]
}

; [#uses=0]
define zeroext i1 @_Z21getClusterTrackLinkerPA4_tS0_S0_PtS1_S1_S1_S1_S1_S1_S1_S1_([4 x i16]* %clusterET, [4 x i16]* %peakEta, [4 x i16]* %peakPhi, i16* %trackPT, i16* %trackEta, i16* %trackPhi, i16* %linkedTrackPT, i16* %linkedTrackEta, i16* %linkedTrackPhi, i16* %neutralClusterET, i16* %neutralClusterEta, i16* %neutralClusterPhi) nounwind uwtable {
  %1 = alloca [4 x i16]*, align 8                 ; [#uses=5 type=[4 x i16]**]
  %2 = alloca [4 x i16]*, align 8                 ; [#uses=4 type=[4 x i16]**]
  %3 = alloca [4 x i16]*, align 8                 ; [#uses=4 type=[4 x i16]**]
  %4 = alloca i16*, align 8                       ; [#uses=6 type=i16**]
  %5 = alloca i16*, align 8                       ; [#uses=6 type=i16**]
  %6 = alloca i16*, align 8                       ; [#uses=6 type=i16**]
  %7 = alloca i16*, align 8                       ; [#uses=4 type=i16**]
  %8 = alloca i16*, align 8                       ; [#uses=6 type=i16**]
  %9 = alloca i16*, align 8                       ; [#uses=6 type=i16**]
  %10 = alloca i16*, align 8                      ; [#uses=6 type=i16**]
  %11 = alloca i16*, align 8                      ; [#uses=4 type=i16**]
  %12 = alloca i16*, align 8                      ; [#uses=4 type=i16**]
  %clusterEta = alloca [68 x i16], align 16       ; [#uses=9 type=[68 x i16]*]
  %clusterPhi = alloca [68 x i16], align 16       ; [#uses=9 type=[68 x i16]*]
  %tEta = alloca i32, align 4                     ; [#uses=9 type=i32*]
  %tPhi = alloca i32, align 4                     ; [#uses=9 type=i32*]
  %cluster = alloca i32, align 4                  ; [#uses=8 type=i32*]
  %track_peak_eta = alloca [10 x i16], align 16   ; [#uses=7 type=[10 x i16]*]
  %track_peak_phi = alloca [10 x i16], align 16   ; [#uses=7 type=[10 x i16]*]
  %track = alloca i32, align 4                    ; [#uses=32 type=i32*]
  %13 = alloca %struct.ap_fixed_base.3, align 4   ; [#uses=2 type=%struct.ap_fixed_base.3*]
  %14 = alloca %struct.ap_fixed_base.5, align 4   ; [#uses=2 type=%struct.ap_fixed_base.5*]
  %clus_eta = alloca i16, align 2                 ; [#uses=3 type=i16*]
  %clus_phi = alloca i16, align 2                 ; [#uses=3 type=i16*]
  %diff = alloca [3 x [3 x %struct.ap_fixed]], align 16 ; [#uses=5 type=[3 x [3 x %struct.ap_fixed]]*]
  %a = alloca i32, align 4                        ; [#uses=5 type=i32*]
  %b = alloca i32, align 4                        ; [#uses=5 type=i32*]
  %15 = alloca %struct.ap_fixed, align 2          ; [#uses=2 type=%struct.ap_fixed*]
  %eta = alloca i16, align 2                      ; [#uses=4 type=i16*]
  %phi = alloca i16, align 2                      ; [#uses=4 type=i16*]
  %cluster_trial = alloca i16, align 2            ; [#uses=9 type=i16*]
  %diffEta = alloca i16, align 2                  ; [#uses=4 type=i16*]
  %diffPhi = alloca i16, align 2                  ; [#uses=4 type=i16*]
  %least_dist = alloca %struct.ap_ufixed, align 2 ; [#uses=3 type=%struct.ap_ufixed*]
  %i = alloca i32, align 4                        ; [#uses=8 type=i32*]
  %j = alloca i32, align 4                        ; [#uses=8 type=i32*]
  %eta4 = alloca i16, align 2                     ; [#uses=2 type=i16*]
  %phi5 = alloca i16, align 2                     ; [#uses=2 type=i16*]
  %cluster_trial6 = alloca i16, align 2           ; [#uses=10 type=i16*]
  %diffEta7 = alloca i16, align 2                 ; [#uses=7 type=i16*]
  %diffPhi8 = alloca i16, align 2                 ; [#uses=7 type=i16*]
  %common = alloca i16, align 2                   ; [#uses=2 type=i16*]
  %uncommon = alloca i16, align 2                 ; [#uses=4 type=i16*]
  %16 = alloca %struct.ap_ufixed, align 2         ; [#uses=2 type=%struct.ap_ufixed*]
  store [4 x i16]* %clusterET, [4 x i16]** %1, align 8
  call void @llvm.dbg.declare(metadata !{[4 x i16]** %1}, metadata !9998), !dbg !9999 ; [debug line = 10:37] [debug variable = clusterET]
  store [4 x i16]* %peakEta, [4 x i16]** %2, align 8
  call void @llvm.dbg.declare(metadata !{[4 x i16]** %2}, metadata !10000), !dbg !10001 ; [debug line = 11:16] [debug variable = peakEta]
  store [4 x i16]* %peakPhi, [4 x i16]** %3, align 8
  call void @llvm.dbg.declare(metadata !{[4 x i16]** %3}, metadata !10002), !dbg !10003 ; [debug line = 12:16] [debug variable = peakPhi]
  store i16* %trackPT, i16** %4, align 8
  call void @llvm.dbg.declare(metadata !{i16** %4}, metadata !10004), !dbg !10005 ; [debug line = 13:16] [debug variable = trackPT]
  store i16* %trackEta, i16** %5, align 8
  call void @llvm.dbg.declare(metadata !{i16** %5}, metadata !10006), !dbg !10007 ; [debug line = 14:16] [debug variable = trackEta]
  store i16* %trackPhi, i16** %6, align 8
  call void @llvm.dbg.declare(metadata !{i16** %6}, metadata !10008), !dbg !10009 ; [debug line = 15:16] [debug variable = trackPhi]
  store i16* %linkedTrackPT, i16** %7, align 8
  call void @llvm.dbg.declare(metadata !{i16** %7}, metadata !10010), !dbg !10011 ; [debug line = 16:16] [debug variable = linkedTrackPT]
  store i16* %linkedTrackEta, i16** %8, align 8
  call void @llvm.dbg.declare(metadata !{i16** %8}, metadata !10012), !dbg !10013 ; [debug line = 17:16] [debug variable = linkedTrackEta]
  store i16* %linkedTrackPhi, i16** %9, align 8
  call void @llvm.dbg.declare(metadata !{i16** %9}, metadata !10014), !dbg !10015 ; [debug line = 18:16] [debug variable = linkedTrackPhi]
  store i16* %neutralClusterET, i16** %10, align 8
  call void @llvm.dbg.declare(metadata !{i16** %10}, metadata !10016), !dbg !10017 ; [debug line = 20:16] [debug variable = neutralClusterET]
  store i16* %neutralClusterEta, i16** %11, align 8
  call void @llvm.dbg.declare(metadata !{i16** %11}, metadata !10018), !dbg !10019 ; [debug line = 21:16] [debug variable = neutralClusterEta]
  store i16* %neutralClusterPhi, i16** %12, align 8
  call void @llvm.dbg.declare(metadata !{i16** %12}, metadata !10020), !dbg !10021 ; [debug line = 22:16] [debug variable = neutralClusterPhi]
  %17 = load i16** %8, align 8, !dbg !10022       ; [#uses=1 type=i16*] [debug line = 23:7]
  call void (...)* @_ssdm_SpecArrayDimSize(i16* %17, i32 10) nounwind, !dbg !10022 ; [debug line = 23:7]
  %18 = load i16** %12, align 8, !dbg !10024      ; [#uses=1 type=i16*] [debug line = 23:56]
  call void (...)* @_ssdm_SpecArrayDimSize(i16* %18, i32 68) nounwind, !dbg !10024 ; [debug line = 23:56]
  %19 = load [4 x i16]** %1, align 8, !dbg !10025 ; [#uses=1 type=[4 x i16]*] [debug line = 23:117]
  call void (...)* @_ssdm_SpecArrayDimSize([4 x i16]* %19, i32 17) nounwind, !dbg !10025 ; [debug line = 23:117]
  %20 = load i16** %11, align 8, !dbg !10026      ; [#uses=1 type=i16*] [debug line = 23:166]
  call void (...)* @_ssdm_SpecArrayDimSize(i16* %20, i32 68) nounwind, !dbg !10026 ; [debug line = 23:166]
  %21 = load i16** %10, align 8, !dbg !10027      ; [#uses=1 type=i16*] [debug line = 23:227]
  call void (...)* @_ssdm_SpecArrayDimSize(i16* %21, i32 68) nounwind, !dbg !10027 ; [debug line = 23:227]
  %22 = load i16** %9, align 8, !dbg !10028       ; [#uses=1 type=i16*] [debug line = 23:0]
  call void (...)* @_ssdm_SpecArrayDimSize(i16* %22, i32 10) nounwind, !dbg !10028 ; [debug line = 23:0]
  %23 = load [4 x i16]** %3, align 8, !dbg !10028 ; [#uses=1 type=[4 x i16]*] [debug line = 23:0]
  call void (...)* @_ssdm_SpecArrayDimSize([4 x i16]* %23, i32 17) nounwind, !dbg !10028 ; [debug line = 23:0]
  %24 = load i16** %5, align 8, !dbg !10028       ; [#uses=1 type=i16*] [debug line = 23:0]
  call void (...)* @_ssdm_SpecArrayDimSize(i16* %24, i32 10) nounwind, !dbg !10028 ; [debug line = 23:0]
  %25 = load [4 x i16]** %2, align 8, !dbg !10028 ; [#uses=1 type=[4 x i16]*] [debug line = 23:0]
  call void (...)* @_ssdm_SpecArrayDimSize([4 x i16]* %25, i32 17) nounwind, !dbg !10028 ; [debug line = 23:0]
  %26 = load i16** %4, align 8, !dbg !10028       ; [#uses=1 type=i16*] [debug line = 23:0]
  call void (...)* @_ssdm_SpecArrayDimSize(i16* %26, i32 10) nounwind, !dbg !10028 ; [debug line = 23:0]
  %27 = load i16** %6, align 8, !dbg !10028       ; [#uses=1 type=i16*] [debug line = 23:0]
  call void (...)* @_ssdm_SpecArrayDimSize(i16* %27, i32 10) nounwind, !dbg !10028 ; [debug line = 23:0]
  %28 = load i16** %7, align 8, !dbg !10028       ; [#uses=1 type=i16*] [debug line = 23:0]
  call void (...)* @_ssdm_SpecArrayDimSize(i16* %28, i32 10) nounwind, !dbg !10028 ; [debug line = 23:0]
  call void (...)* @_ssdm_op_SpecPipeline(i32 6, i32 1, i32 1, i32 0, i8* getelementptr inbounds ([1 x i8]* @.str13, i32 0, i32 0)) nounwind, !dbg !10029 ; [debug line = 25:1]
  %29 = load [4 x i16]** %1, align 8, !dbg !10030 ; [#uses=1 type=[4 x i16]*] [debug line = 27:1]
  call void (...)* @_ssdm_SpecArrayPartition([4 x i16]* %29, i32 0, i8* getelementptr inbounds ([9 x i8]* @.str314, i32 0, i32 0), i32 0, i8* getelementptr inbounds ([1 x i8]* @.str13, i32 0, i32 0)) nounwind, !dbg !10030 ; [debug line = 27:1]
  %30 = load [4 x i16]** %2, align 8, !dbg !10031 ; [#uses=1 type=[4 x i16]*] [debug line = 28:1]
  call void (...)* @_ssdm_SpecArrayPartition([4 x i16]* %30, i32 0, i8* getelementptr inbounds ([9 x i8]* @.str314, i32 0, i32 0), i32 0, i8* getelementptr inbounds ([1 x i8]* @.str13, i32 0, i32 0)) nounwind, !dbg !10031 ; [debug line = 28:1]
  %31 = load [4 x i16]** %3, align 8, !dbg !10032 ; [#uses=1 type=[4 x i16]*] [debug line = 29:1]
  call void (...)* @_ssdm_SpecArrayPartition([4 x i16]* %31, i32 0, i8* getelementptr inbounds ([9 x i8]* @.str314, i32 0, i32 0), i32 0, i8* getelementptr inbounds ([1 x i8]* @.str13, i32 0, i32 0)) nounwind, !dbg !10032 ; [debug line = 29:1]
  %32 = load i16** %4, align 8, !dbg !10033       ; [#uses=1 type=i16*] [debug line = 30:1]
  call void (...)* @_ssdm_SpecArrayPartition(i16* %32, i32 0, i8* getelementptr inbounds ([9 x i8]* @.str314, i32 0, i32 0), i32 0, i8* getelementptr inbounds ([1 x i8]* @.str13, i32 0, i32 0)) nounwind, !dbg !10033 ; [debug line = 30:1]
  %33 = load i16** %5, align 8, !dbg !10034       ; [#uses=1 type=i16*] [debug line = 31:1]
  call void (...)* @_ssdm_SpecArrayPartition(i16* %33, i32 0, i8* getelementptr inbounds ([9 x i8]* @.str314, i32 0, i32 0), i32 0, i8* getelementptr inbounds ([1 x i8]* @.str13, i32 0, i32 0)) nounwind, !dbg !10034 ; [debug line = 31:1]
  %34 = load i16** %6, align 8, !dbg !10035       ; [#uses=1 type=i16*] [debug line = 32:1]
  call void (...)* @_ssdm_SpecArrayPartition(i16* %34, i32 0, i8* getelementptr inbounds ([9 x i8]* @.str314, i32 0, i32 0), i32 0, i8* getelementptr inbounds ([1 x i8]* @.str13, i32 0, i32 0)) nounwind, !dbg !10035 ; [debug line = 32:1]
  %35 = load i16** %7, align 8, !dbg !10036       ; [#uses=1 type=i16*] [debug line = 33:1]
  call void (...)* @_ssdm_SpecArrayPartition(i16* %35, i32 0, i8* getelementptr inbounds ([9 x i8]* @.str314, i32 0, i32 0), i32 0, i8* getelementptr inbounds ([1 x i8]* @.str13, i32 0, i32 0)) nounwind, !dbg !10036 ; [debug line = 33:1]
  %36 = load i16** %8, align 8, !dbg !10037       ; [#uses=1 type=i16*] [debug line = 34:1]
  call void (...)* @_ssdm_SpecArrayPartition(i16* %36, i32 0, i8* getelementptr inbounds ([9 x i8]* @.str314, i32 0, i32 0), i32 0, i8* getelementptr inbounds ([1 x i8]* @.str13, i32 0, i32 0)) nounwind, !dbg !10037 ; [debug line = 34:1]
  %37 = load i16** %9, align 8, !dbg !10038       ; [#uses=1 type=i16*] [debug line = 35:1]
  call void (...)* @_ssdm_SpecArrayPartition(i16* %37, i32 0, i8* getelementptr inbounds ([9 x i8]* @.str314, i32 0, i32 0), i32 0, i8* getelementptr inbounds ([1 x i8]* @.str13, i32 0, i32 0)) nounwind, !dbg !10038 ; [debug line = 35:1]
  %38 = load i16** %10, align 8, !dbg !10039      ; [#uses=1 type=i16*] [debug line = 37:1]
  call void (...)* @_ssdm_SpecArrayPartition(i16* %38, i32 0, i8* getelementptr inbounds ([9 x i8]* @.str314, i32 0, i32 0), i32 0, i8* getelementptr inbounds ([1 x i8]* @.str13, i32 0, i32 0)) nounwind, !dbg !10039 ; [debug line = 37:1]
  %39 = load i16** %11, align 8, !dbg !10040      ; [#uses=1 type=i16*] [debug line = 38:1]
  call void (...)* @_ssdm_SpecArrayPartition(i16* %39, i32 0, i8* getelementptr inbounds ([9 x i8]* @.str314, i32 0, i32 0), i32 0, i8* getelementptr inbounds ([1 x i8]* @.str13, i32 0, i32 0)) nounwind, !dbg !10040 ; [debug line = 38:1]
  %40 = load i16** %12, align 8, !dbg !10041      ; [#uses=1 type=i16*] [debug line = 39:1]
  call void (...)* @_ssdm_SpecArrayPartition(i16* %40, i32 0, i8* getelementptr inbounds ([9 x i8]* @.str314, i32 0, i32 0), i32 0, i8* getelementptr inbounds ([1 x i8]* @.str13, i32 0, i32 0)) nounwind, !dbg !10041 ; [debug line = 39:1]
  call void @llvm.dbg.declare(metadata !{[68 x i16]* %clusterEta}, metadata !10042), !dbg !10046 ; [debug line = 41:11] [debug variable = clusterEta]
  call void @llvm.dbg.declare(metadata !{[68 x i16]* %clusterPhi}, metadata !10047), !dbg !10048 ; [debug line = 42:12] [debug variable = clusterPhi]
  %41 = getelementptr inbounds [68 x i16]* %clusterEta, i32 0, i32 0, !dbg !10049 ; [#uses=1 type=i16*] [debug line = 43:1]
  call void (...)* @_ssdm_SpecArrayPartition(i16* %41, i32 0, i8* getelementptr inbounds ([9 x i8]* @.str314, i32 0, i32 0), i32 0, i8* getelementptr inbounds ([1 x i8]* @.str13, i32 0, i32 0)) nounwind, !dbg !10049 ; [debug line = 43:1]
  %42 = getelementptr inbounds [68 x i16]* %clusterPhi, i32 0, i32 0, !dbg !10050 ; [#uses=1 type=i16*] [debug line = 44:1]
  call void (...)* @_ssdm_SpecArrayPartition(i16* %42, i32 0, i8* getelementptr inbounds ([9 x i8]* @.str314, i32 0, i32 0), i32 0, i8* getelementptr inbounds ([1 x i8]* @.str13, i32 0, i32 0)) nounwind, !dbg !10050 ; [debug line = 44:1]
  call void @llvm.dbg.declare(metadata !{i32* %tEta}, metadata !10051), !dbg !10053 ; [debug line = 45:10] [debug variable = tEta]
  store i32 0, i32* %tEta, align 4, !dbg !10054   ; [debug line = 45:18]
  br label %43, !dbg !10054                       ; [debug line = 45:18]

; <label>:43                                      ; preds = %119, %0
  %44 = load i32* %tEta, align 4, !dbg !10054     ; [#uses=1 type=i32] [debug line = 45:18]
  %45 = icmp slt i32 %44, 17, !dbg !10054         ; [#uses=1 type=i1] [debug line = 45:18]
  br i1 %45, label %46, label %122, !dbg !10054   ; [debug line = 45:18]

; <label>:46                                      ; preds = %43
  call void (...)* @_ssdm_RegionBegin(i8* getelementptr inbounds ([12 x i8]* @.str415, i32 0, i32 0)) nounwind, !dbg !10055 ; [debug line = 45:52]
  call void (...)* @_ssdm_Unroll(i32 0, i32 0, i32 0, i8* getelementptr inbounds ([1 x i8]* @.str13, i32 0, i32 0)) nounwind, !dbg !10057 ; [debug line = 46:1]
  call void @llvm.dbg.declare(metadata !{i32* %tPhi}, metadata !10058), !dbg !10060 ; [debug line = 47:10] [debug variable = tPhi]
  store i32 0, i32* %tPhi, align 4, !dbg !10061   ; [debug line = 47:18]
  br label %47, !dbg !10061                       ; [debug line = 47:18]

; <label>:47                                      ; preds = %115, %46
  %48 = load i32* %tPhi, align 4, !dbg !10061     ; [#uses=1 type=i32] [debug line = 47:18]
  %49 = icmp slt i32 %48, 4, !dbg !10061          ; [#uses=1 type=i1] [debug line = 47:18]
  br i1 %49, label %50, label %118, !dbg !10061   ; [debug line = 47:18]

; <label>:50                                      ; preds = %47
  call void (...)* @_ssdm_RegionBegin(i8* getelementptr inbounds ([12 x i8]* @.str516, i32 0, i32 0)) nounwind, !dbg !10062 ; [debug line = 47:52]
  call void (...)* @_ssdm_Unroll(i32 0, i32 0, i32 0, i8* getelementptr inbounds ([1 x i8]* @.str13, i32 0, i32 0)) nounwind, !dbg !10064 ; [debug line = 48:1]
  call void @llvm.dbg.declare(metadata !{i32* %cluster}, metadata !10065), !dbg !10066 ; [debug line = 49:6] [debug variable = cluster]
  %51 = load i32* %tEta, align 4, !dbg !10067     ; [#uses=1 type=i32] [debug line = 49:44]
  %52 = mul nsw i32 %51, 4, !dbg !10067           ; [#uses=1 type=i32] [debug line = 49:44]
  %53 = load i32* %tPhi, align 4, !dbg !10067     ; [#uses=1 type=i32] [debug line = 49:44]
  %54 = add nsw i32 %52, %53, !dbg !10067         ; [#uses=1 type=i32] [debug line = 49:44]
  store i32 %54, i32* %cluster, align 4, !dbg !10067 ; [debug line = 49:44]
  %55 = load i32* %tEta, align 4, !dbg !10068     ; [#uses=1 type=i32] [debug line = 52:7]
  %56 = mul nsw i32 %55, 5, !dbg !10068           ; [#uses=1 type=i32] [debug line = 52:7]
  %57 = load i32* %tPhi, align 4, !dbg !10068     ; [#uses=1 type=i32] [debug line = 52:7]
  %58 = sext i32 %57 to i64, !dbg !10068          ; [#uses=1 type=i64] [debug line = 52:7]
  %59 = load i32* %tEta, align 4, !dbg !10068     ; [#uses=1 type=i32] [debug line = 52:7]
  %60 = sext i32 %59 to i64, !dbg !10068          ; [#uses=1 type=i64] [debug line = 52:7]
  %61 = load [4 x i16]** %2, align 8, !dbg !10068 ; [#uses=1 type=[4 x i16]*] [debug line = 52:7]
  %62 = getelementptr inbounds [4 x i16]* %61, i64 %60, !dbg !10068 ; [#uses=1 type=[4 x i16]*] [debug line = 52:7]
  %63 = getelementptr inbounds [4 x i16]* %62, i32 0, i64 %58, !dbg !10068 ; [#uses=1 type=i16*] [debug line = 52:7]
  %64 = load i16* %63, align 2, !dbg !10068       ; [#uses=1 type=i16] [debug line = 52:7]
  %65 = zext i16 %64 to i32, !dbg !10068          ; [#uses=1 type=i32] [debug line = 52:7]
  %66 = add nsw i32 %56, %65, !dbg !10068         ; [#uses=1 type=i32] [debug line = 52:7]
  %67 = trunc i32 %66 to i16, !dbg !10068         ; [#uses=1 type=i16] [debug line = 52:7]
  %68 = load i32* %cluster, align 4, !dbg !10068  ; [#uses=1 type=i32] [debug line = 52:7]
  %69 = sext i32 %68 to i64, !dbg !10068          ; [#uses=1 type=i64] [debug line = 52:7]
  %70 = getelementptr inbounds [68 x i16]* %clusterEta, i32 0, i64 %69, !dbg !10068 ; [#uses=1 type=i16*] [debug line = 52:7]
  store i16 %67, i16* %70, align 2, !dbg !10068   ; [debug line = 52:7]
  %71 = load i32* %tPhi, align 4, !dbg !10069     ; [#uses=1 type=i32] [debug line = 53:7]
  %72 = mul nsw i32 %71, 5, !dbg !10069           ; [#uses=1 type=i32] [debug line = 53:7]
  %73 = load i32* %tPhi, align 4, !dbg !10069     ; [#uses=1 type=i32] [debug line = 53:7]
  %74 = sext i32 %73 to i64, !dbg !10069          ; [#uses=1 type=i64] [debug line = 53:7]
  %75 = load i32* %tEta, align 4, !dbg !10069     ; [#uses=1 type=i32] [debug line = 53:7]
  %76 = sext i32 %75 to i64, !dbg !10069          ; [#uses=1 type=i64] [debug line = 53:7]
  %77 = load [4 x i16]** %3, align 8, !dbg !10069 ; [#uses=1 type=[4 x i16]*] [debug line = 53:7]
  %78 = getelementptr inbounds [4 x i16]* %77, i64 %76, !dbg !10069 ; [#uses=1 type=[4 x i16]*] [debug line = 53:7]
  %79 = getelementptr inbounds [4 x i16]* %78, i32 0, i64 %74, !dbg !10069 ; [#uses=1 type=i16*] [debug line = 53:7]
  %80 = load i16* %79, align 2, !dbg !10069       ; [#uses=1 type=i16] [debug line = 53:7]
  %81 = zext i16 %80 to i32, !dbg !10069          ; [#uses=1 type=i32] [debug line = 53:7]
  %82 = add nsw i32 %72, %81, !dbg !10069         ; [#uses=1 type=i32] [debug line = 53:7]
  %83 = trunc i32 %82 to i16, !dbg !10069         ; [#uses=1 type=i16] [debug line = 53:7]
  %84 = load i32* %cluster, align 4, !dbg !10069  ; [#uses=1 type=i32] [debug line = 53:7]
  %85 = sext i32 %84 to i64, !dbg !10069          ; [#uses=1 type=i64] [debug line = 53:7]
  %86 = getelementptr inbounds [68 x i16]* %clusterPhi, i32 0, i64 %85, !dbg !10069 ; [#uses=1 type=i16*] [debug line = 53:7]
  store i16 %83, i16* %86, align 2, !dbg !10069   ; [debug line = 53:7]
  %87 = load i32* %tPhi, align 4, !dbg !10070     ; [#uses=1 type=i32] [debug line = 58:7]
  %88 = sext i32 %87 to i64, !dbg !10070          ; [#uses=1 type=i64] [debug line = 58:7]
  %89 = load i32* %tEta, align 4, !dbg !10070     ; [#uses=1 type=i32] [debug line = 58:7]
  %90 = sext i32 %89 to i64, !dbg !10070          ; [#uses=1 type=i64] [debug line = 58:7]
  %91 = load [4 x i16]** %1, align 8, !dbg !10070 ; [#uses=1 type=[4 x i16]*] [debug line = 58:7]
  %92 = getelementptr inbounds [4 x i16]* %91, i64 %90, !dbg !10070 ; [#uses=1 type=[4 x i16]*] [debug line = 58:7]
  %93 = getelementptr inbounds [4 x i16]* %92, i32 0, i64 %88, !dbg !10070 ; [#uses=1 type=i16*] [debug line = 58:7]
  %94 = load i16* %93, align 2, !dbg !10070       ; [#uses=1 type=i16] [debug line = 58:7]
  %95 = load i32* %cluster, align 4, !dbg !10070  ; [#uses=1 type=i32] [debug line = 58:7]
  %96 = sext i32 %95 to i64, !dbg !10070          ; [#uses=1 type=i64] [debug line = 58:7]
  %97 = load i16** %10, align 8, !dbg !10070      ; [#uses=1 type=i16*] [debug line = 58:7]
  %98 = getelementptr inbounds i16* %97, i64 %96, !dbg !10070 ; [#uses=1 type=i16*] [debug line = 58:7]
  store i16 %94, i16* %98, align 2, !dbg !10070   ; [debug line = 58:7]
  %99 = load i32* %cluster, align 4, !dbg !10071  ; [#uses=1 type=i32] [debug line = 59:7]
  %100 = sext i32 %99 to i64, !dbg !10071         ; [#uses=1 type=i64] [debug line = 59:7]
  %101 = getelementptr inbounds [68 x i16]* %clusterEta, i32 0, i64 %100, !dbg !10071 ; [#uses=1 type=i16*] [debug line = 59:7]
  %102 = load i16* %101, align 2, !dbg !10071     ; [#uses=1 type=i16] [debug line = 59:7]
  %103 = load i32* %cluster, align 4, !dbg !10071 ; [#uses=1 type=i32] [debug line = 59:7]
  %104 = sext i32 %103 to i64, !dbg !10071        ; [#uses=1 type=i64] [debug line = 59:7]
  %105 = load i16** %11, align 8, !dbg !10071     ; [#uses=1 type=i16*] [debug line = 59:7]
  %106 = getelementptr inbounds i16* %105, i64 %104, !dbg !10071 ; [#uses=1 type=i16*] [debug line = 59:7]
  store i16 %102, i16* %106, align 2, !dbg !10071 ; [debug line = 59:7]
  %107 = load i32* %cluster, align 4, !dbg !10072 ; [#uses=1 type=i32] [debug line = 60:7]
  %108 = sext i32 %107 to i64, !dbg !10072        ; [#uses=1 type=i64] [debug line = 60:7]
  %109 = getelementptr inbounds [68 x i16]* %clusterPhi, i32 0, i64 %108, !dbg !10072 ; [#uses=1 type=i16*] [debug line = 60:7]
  %110 = load i16* %109, align 2, !dbg !10072     ; [#uses=1 type=i16] [debug line = 60:7]
  %111 = load i32* %cluster, align 4, !dbg !10072 ; [#uses=1 type=i32] [debug line = 60:7]
  %112 = sext i32 %111 to i64, !dbg !10072        ; [#uses=1 type=i64] [debug line = 60:7]
  %113 = load i16** %12, align 8, !dbg !10072     ; [#uses=1 type=i16*] [debug line = 60:7]
  %114 = getelementptr inbounds i16* %113, i64 %112, !dbg !10072 ; [#uses=1 type=i16*] [debug line = 60:7]
  store i16 %110, i16* %114, align 2, !dbg !10072 ; [debug line = 60:7]
  call void (...)* @_ssdm_RegionEnd(i8* getelementptr inbounds ([12 x i8]* @.str516, i32 0, i32 0)) nounwind, !dbg !10073 ; [debug line = 64:5]
  br label %115, !dbg !10073                      ; [debug line = 64:5]

; <label>:115                                     ; preds = %50
  %116 = load i32* %tPhi, align 4, !dbg !10074    ; [#uses=1 type=i32] [debug line = 47:43]
  %117 = add nsw i32 %116, 1, !dbg !10074         ; [#uses=1 type=i32] [debug line = 47:43]
  store i32 %117, i32* %tPhi, align 4, !dbg !10074 ; [debug line = 47:43]
  br label %47, !dbg !10074                       ; [debug line = 47:43]

; <label>:118                                     ; preds = %47
  call void (...)* @_ssdm_RegionEnd(i8* getelementptr inbounds ([12 x i8]* @.str415, i32 0, i32 0)) nounwind, !dbg !10075 ; [debug line = 65:3]
  br label %119, !dbg !10075                      ; [debug line = 65:3]

; <label>:119                                     ; preds = %118
  %120 = load i32* %tEta, align 4, !dbg !10076    ; [#uses=1 type=i32] [debug line = 45:43]
  %121 = add nsw i32 %120, 1, !dbg !10076         ; [#uses=1 type=i32] [debug line = 45:43]
  store i32 %121, i32* %tEta, align 4, !dbg !10076 ; [debug line = 45:43]
  br label %43, !dbg !10076                       ; [debug line = 45:43]

; <label>:122                                     ; preds = %43
  call void @llvm.dbg.declare(metadata !{[10 x i16]* %track_peak_eta}, metadata !10077), !dbg !10081 ; [debug line = 67:11] [debug variable = track_peak_eta]
  call void @llvm.dbg.declare(metadata !{[10 x i16]* %track_peak_phi}, metadata !10082), !dbg !10083 ; [debug line = 68:11] [debug variable = track_peak_phi]
  %123 = getelementptr inbounds [10 x i16]* %track_peak_eta, i32 0, i32 0, !dbg !10084 ; [#uses=1 type=i16*] [debug line = 69:1]
  call void (...)* @_ssdm_SpecArrayPartition(i16* %123, i32 0, i8* getelementptr inbounds ([9 x i8]* @.str617, i32 0, i32 0), i32 0, i8* getelementptr inbounds ([1 x i8]* @.str13, i32 0, i32 0)) nounwind, !dbg !10084 ; [debug line = 69:1]
  %124 = getelementptr inbounds [10 x i16]* %track_peak_phi, i32 0, i32 0, !dbg !10085 ; [#uses=1 type=i16*] [debug line = 70:1]
  call void (...)* @_ssdm_SpecArrayPartition(i16* %124, i32 0, i8* getelementptr inbounds ([9 x i8]* @.str617, i32 0, i32 0), i32 0, i8* getelementptr inbounds ([1 x i8]* @.str13, i32 0, i32 0)) nounwind, !dbg !10085 ; [debug line = 70:1]
  %125 = call %"class.std::basic_ostream"* @_ZStlsISt11char_traitsIcEERSt13basic_ostreamIcT_ES5_PKc(%"class.std::basic_ostream"* @_ZSt4cout, i8* getelementptr inbounds ([10 x i8]* @.str718, i32 0, i32 0)), !dbg !10086 ; [#uses=1 type=%"class.std::basic_ostream"*] [debug line = 72:2]
  %126 = call %"class.std::basic_ostream"* @_ZNSolsEt(%"class.std::basic_ostream"* %125, i16 zeroext 2958), !dbg !10086 ; [#uses=1 type=%"class.std::basic_ostream"*] [debug line = 72:2]
  %127 = call %"class.std::basic_ostream"* @_ZNSolsEPFRSoS_E(%"class.std::basic_ostream"* %126, %"class.std::basic_ostream"* (%"class.std::basic_ostream"*)* @_ZSt4endlIcSt11char_traitsIcEERSt13basic_ostreamIT_T0_ES6_), !dbg !10086 ; [#uses=0 type=%"class.std::basic_ostream"*] [debug line = 72:2]
  %128 = call %"class.std::basic_ostream"* @_ZStlsISt11char_traitsIcEERSt13basic_ostreamIcT_ES5_PKc(%"class.std::basic_ostream"* @_ZSt4cout, i8* getelementptr inbounds ([10 x i8]* @.str819, i32 0, i32 0)), !dbg !10087 ; [#uses=1 type=%"class.std::basic_ostream"*] [debug line = 73:2]
  %129 = call %"class.std::basic_ostream"* @_ZlsILi10ELi2ELb0EL9ap_q_mode5EL9ap_o_mode3ELi0EERSoS2_RK13ap_fixed_baseIXT_EXT0_EXT1_EXT2_EXT3_EXT4_EE(%"class.std::basic_ostream"* %128, %struct.ap_fixed_base* getelementptr inbounds (%struct.ap_ufixed* @_ZL14conv_track_eta, i32 0, i32 0)), !dbg !10087 ; [#uses=1 type=%"class.std::basic_ostream"*] [debug line = 73:2]
  %130 = call %"class.std::basic_ostream"* @_ZNSolsEPFRSoS_E(%"class.std::basic_ostream"* %129, %"class.std::basic_ostream"* (%"class.std::basic_ostream"*)* @_ZSt4endlIcSt11char_traitsIcEERSt13basic_ostreamIT_T0_ES6_), !dbg !10087 ; [#uses=0 type=%"class.std::basic_ostream"*] [debug line = 73:2]
  %131 = call %"class.std::basic_ostream"* @_ZStlsISt11char_traitsIcEERSt13basic_ostreamIcT_ES5_PKc(%"class.std::basic_ostream"* @_ZSt4cout, i8* getelementptr inbounds ([10 x i8]* @.str920, i32 0, i32 0)), !dbg !10088 ; [#uses=1 type=%"class.std::basic_ostream"*] [debug line = 74:2]
  %132 = call %"class.std::basic_ostream"* @_ZlsILi16ELi2ELb0EL9ap_q_mode5EL9ap_o_mode3ELi0EERSoS2_RK13ap_fixed_baseIXT_EXT0_EXT1_EXT2_EXT3_EXT4_EE(%"class.std::basic_ostream"* %131, %struct.ap_fixed_base.1* getelementptr inbounds (%struct.ap_ufixed.0* @_ZL14conv_track_phi, i32 0, i32 0)), !dbg !10088 ; [#uses=1 type=%"class.std::basic_ostream"*] [debug line = 74:2]
  %133 = call %"class.std::basic_ostream"* @_ZNSolsEPFRSoS_E(%"class.std::basic_ostream"* %132, %"class.std::basic_ostream"* (%"class.std::basic_ostream"*)* @_ZSt4endlIcSt11char_traitsIcEERSt13basic_ostreamIT_T0_ES6_), !dbg !10088 ; [#uses=0 type=%"class.std::basic_ostream"*] [debug line = 74:2]
  %134 = call %"class.std::basic_ostream"* @_ZStlsISt11char_traitsIcEERSt13basic_ostreamIcT_ES5_PKc(%"class.std::basic_ostream"* @_ZSt4cout, i8* getelementptr inbounds ([9 x i8]* @.str1021, i32 0, i32 0)), !dbg !10089 ; [#uses=1 type=%"class.std::basic_ostream"*] [debug line = 75:2]
  %135 = call %"class.std::basic_ostream"* @_ZNSolsEt(%"class.std::basic_ostream"* %134, i16 zeroext 34), !dbg !10089 ; [#uses=1 type=%"class.std::basic_ostream"*] [debug line = 75:2]
  %136 = call %"class.std::basic_ostream"* @_ZNSolsEPFRSoS_E(%"class.std::basic_ostream"* %135, %"class.std::basic_ostream"* (%"class.std::basic_ostream"*)* @_ZSt4endlIcSt11char_traitsIcEERSt13basic_ostreamIT_T0_ES6_), !dbg !10089 ; [#uses=0 type=%"class.std::basic_ostream"*] [debug line = 75:2]
  %137 = call %"class.std::basic_ostream"* @_ZStlsISt11char_traitsIcEERSt13basic_ostreamIcT_ES5_PKc(%"class.std::basic_ostream"* @_ZSt4cout, i8* getelementptr inbounds ([9 x i8]* @.str1122, i32 0, i32 0)), !dbg !10090 ; [#uses=1 type=%"class.std::basic_ostream"*] [debug line = 76:2]
  %138 = call %"class.std::basic_ostream"* @_ZNSolsEt(%"class.std::basic_ostream"* %137, i16 zeroext 174), !dbg !10090 ; [#uses=1 type=%"class.std::basic_ostream"*] [debug line = 76:2]
  %139 = call %"class.std::basic_ostream"* @_ZNSolsEPFRSoS_E(%"class.std::basic_ostream"* %138, %"class.std::basic_ostream"* (%"class.std::basic_ostream"*)* @_ZSt4endlIcSt11char_traitsIcEERSt13basic_ostreamIT_T0_ES6_), !dbg !10090 ; [#uses=0 type=%"class.std::basic_ostream"*] [debug line = 76:2]
  call void @llvm.dbg.declare(metadata !{i32* %track}, metadata !10091), !dbg !10093 ; [debug line = 79:11] [debug variable = track]
  store i32 0, i32* %track, align 4, !dbg !10094  ; [debug line = 79:20]
  br label %140, !dbg !10094                      ; [debug line = 79:20]

; <label>:140                                     ; preds = %569, %122
  %141 = load i32* %track, align 4, !dbg !10094   ; [#uses=1 type=i32] [debug line = 79:20]
  %142 = icmp slt i32 %141, 10, !dbg !10094       ; [#uses=1 type=i1] [debug line = 79:20]
  br i1 %142, label %143, label %572, !dbg !10094 ; [debug line = 79:20]

; <label>:143                                     ; preds = %140
  call void (...)* @_ssdm_RegionBegin(i8* getelementptr inbounds ([12 x i8]* @.str1223, i32 0, i32 0)) nounwind, !dbg !10095 ; [debug line = 79:51]
  call void (...)* @_ssdm_Unroll(i32 0, i32 0, i32 0, i8* getelementptr inbounds ([1 x i8]* @.str13, i32 0, i32 0)) nounwind, !dbg !10097 ; [debug line = 80:1]
  %144 = load i32* %track, align 4, !dbg !10098   ; [#uses=1 type=i32] [debug line = 82:2]
  %145 = sext i32 %144 to i64, !dbg !10098        ; [#uses=1 type=i64] [debug line = 82:2]
  %146 = load i16** %4, align 8, !dbg !10098      ; [#uses=1 type=i16*] [debug line = 82:2]
  %147 = getelementptr inbounds i16* %146, i64 %145, !dbg !10098 ; [#uses=1 type=i16*] [debug line = 82:2]
  %148 = load i16* %147, align 2, !dbg !10098     ; [#uses=1 type=i16] [debug line = 82:2]
  %149 = load i32* %track, align 4, !dbg !10098   ; [#uses=1 type=i32] [debug line = 82:2]
  %150 = sext i32 %149 to i64, !dbg !10098        ; [#uses=1 type=i64] [debug line = 82:2]
  %151 = load i16** %7, align 8, !dbg !10098      ; [#uses=1 type=i16*] [debug line = 82:2]
  %152 = getelementptr inbounds i16* %151, i64 %150, !dbg !10098 ; [#uses=1 type=i16*] [debug line = 82:2]
  store i16 %148, i16* %152, align 2, !dbg !10098 ; [debug line = 82:2]
  %153 = load i32* %track, align 4, !dbg !10099   ; [#uses=1 type=i32] [debug line = 83:4]
  %154 = sext i32 %153 to i64, !dbg !10099        ; [#uses=1 type=i64] [debug line = 83:4]
  %155 = load i16** %5, align 8, !dbg !10099      ; [#uses=1 type=i16*] [debug line = 83:4]
  %156 = getelementptr inbounds i16* %155, i64 %154, !dbg !10099 ; [#uses=1 type=i16*] [debug line = 83:4]
  %157 = load i16* %156, align 2, !dbg !10099     ; [#uses=1 type=i16] [debug line = 83:4]
  %158 = load i32* %track, align 4, !dbg !10099   ; [#uses=1 type=i32] [debug line = 83:4]
  %159 = sext i32 %158 to i64, !dbg !10099        ; [#uses=1 type=i64] [debug line = 83:4]
  %160 = load i16** %8, align 8, !dbg !10099      ; [#uses=1 type=i16*] [debug line = 83:4]
  %161 = getelementptr inbounds i16* %160, i64 %159, !dbg !10099 ; [#uses=1 type=i16*] [debug line = 83:4]
  store i16 %157, i16* %161, align 2, !dbg !10099 ; [debug line = 83:4]
  %162 = load i32* %track, align 4, !dbg !10100   ; [#uses=1 type=i32] [debug line = 84:4]
  %163 = sext i32 %162 to i64, !dbg !10100        ; [#uses=1 type=i64] [debug line = 84:4]
  %164 = load i16** %6, align 8, !dbg !10100      ; [#uses=1 type=i16*] [debug line = 84:4]
  %165 = getelementptr inbounds i16* %164, i64 %163, !dbg !10100 ; [#uses=1 type=i16*] [debug line = 84:4]
  %166 = load i16* %165, align 2, !dbg !10100     ; [#uses=1 type=i16] [debug line = 84:4]
  %167 = load i32* %track, align 4, !dbg !10100   ; [#uses=1 type=i32] [debug line = 84:4]
  %168 = sext i32 %167 to i64, !dbg !10100        ; [#uses=1 type=i64] [debug line = 84:4]
  %169 = load i16** %9, align 8, !dbg !10100      ; [#uses=1 type=i16*] [debug line = 84:4]
  %170 = getelementptr inbounds i16* %169, i64 %168, !dbg !10100 ; [#uses=1 type=i16*] [debug line = 84:4]
  store i16 %166, i16* %170, align 2, !dbg !10100 ; [debug line = 84:4]
  %171 = load i32* %track, align 4, !dbg !10101   ; [#uses=1 type=i32] [debug line = 88:28]
  %172 = sext i32 %171 to i64, !dbg !10101        ; [#uses=1 type=i64] [debug line = 88:28]
  %173 = load i16** %5, align 8, !dbg !10101      ; [#uses=1 type=i16*] [debug line = 88:28]
  %174 = getelementptr inbounds i16* %173, i64 %172, !dbg !10101 ; [#uses=1 type=i16*] [debug line = 88:28]
  %175 = load i16* %174, align 2, !dbg !10101     ; [#uses=1 type=i16] [debug line = 88:28]
  call void @_ZmlILi10ELi2ELb0EL9ap_q_mode5EL9ap_o_mode3ELi0EEN13ap_fixed_baseIXT_EXT0_EXT1_ELS0_5ELS1_3ELi0EE5RTypeIXLi16EEXLi16EEXLb0EEE4multEtRKS2_IXT_EXT0_EXT1_EXT2_EXT3_EXT4_EE(%struct.ap_fixed_base.3* sret %13, i16 zeroext %175, %struct.ap_fixed_base* getelementptr inbounds (%struct.ap_ufixed* @_ZL14conv_track_eta, i32 0, i32 0)), !dbg !10101 ; [debug line = 88:28]
  %176 = call zeroext i16 @_ZNK13ap_fixed_baseILi26ELi18ELb0EL9ap_q_mode5EL9ap_o_mode3ELi0EEcvtEv(%struct.ap_fixed_base.3* %13), !dbg !10101 ; [#uses=1 type=i16] [debug line = 88:28]
  %177 = load i32* %track, align 4, !dbg !10101   ; [#uses=1 type=i32] [debug line = 88:28]
  %178 = sext i32 %177 to i64, !dbg !10101        ; [#uses=1 type=i64] [debug line = 88:28]
  %179 = getelementptr inbounds [10 x i16]* %track_peak_eta, i32 0, i64 %178, !dbg !10101 ; [#uses=1 type=i16*] [debug line = 88:28]
  store i16 %176, i16* %179, align 2, !dbg !10101 ; [debug line = 88:28]
  %180 = load i32* %track, align 4, !dbg !10102   ; [#uses=1 type=i32] [debug line = 89:28]
  %181 = sext i32 %180 to i64, !dbg !10102        ; [#uses=1 type=i64] [debug line = 89:28]
  %182 = load i16** %6, align 8, !dbg !10102      ; [#uses=1 type=i16*] [debug line = 89:28]
  %183 = getelementptr inbounds i16* %182, i64 %181, !dbg !10102 ; [#uses=1 type=i16*] [debug line = 89:28]
  %184 = load i16* %183, align 2, !dbg !10102     ; [#uses=1 type=i16] [debug line = 89:28]
  call void @_ZmlILi16ELi2ELb0EL9ap_q_mode5EL9ap_o_mode3ELi0EEN13ap_fixed_baseIXT_EXT0_EXT1_ELS0_5ELS1_3ELi0EE5RTypeIXLi16EEXLi16EEXLb0EEE4multEtRKS2_IXT_EXT0_EXT1_EXT2_EXT3_EXT4_EE(%struct.ap_fixed_base.5* sret %14, i16 zeroext %184, %struct.ap_fixed_base.1* getelementptr inbounds (%struct.ap_ufixed.0* @_ZL14conv_track_phi, i32 0, i32 0)), !dbg !10102 ; [debug line = 89:28]
  %185 = call zeroext i16 @_ZNK13ap_fixed_baseILi32ELi18ELb0EL9ap_q_mode5EL9ap_o_mode3ELi0EEcvtEv(%struct.ap_fixed_base.5* %14), !dbg !10102 ; [#uses=1 type=i16] [debug line = 89:28]
  %186 = load i32* %track, align 4, !dbg !10102   ; [#uses=1 type=i32] [debug line = 89:28]
  %187 = sext i32 %186 to i64, !dbg !10102        ; [#uses=1 type=i64] [debug line = 89:28]
  %188 = getelementptr inbounds [10 x i16]* %track_peak_phi, i32 0, i64 %187, !dbg !10102 ; [#uses=1 type=i16*] [debug line = 89:28]
  store i16 %185, i16* %188, align 2, !dbg !10102 ; [debug line = 89:28]
  %189 = call %"class.std::basic_ostream"* @_ZStlsISt11char_traitsIcEERSt13basic_ostreamIcT_ES5_PKc(%"class.std::basic_ostream"* @_ZSt4cout, i8* getelementptr inbounds ([13 x i8]* @.str1324, i32 0, i32 0)), !dbg !10103 ; [#uses=1 type=%"class.std::basic_ostream"*] [debug line = 91:4]
  %190 = load i32* %track, align 4, !dbg !10103   ; [#uses=1 type=i32] [debug line = 91:4]
  %191 = sext i32 %190 to i64, !dbg !10103        ; [#uses=1 type=i64] [debug line = 91:4]
  %192 = load i16** %5, align 8, !dbg !10103      ; [#uses=1 type=i16*] [debug line = 91:4]
  %193 = getelementptr inbounds i16* %192, i64 %191, !dbg !10103 ; [#uses=1 type=i16*] [debug line = 91:4]
  %194 = load i16* %193, align 2, !dbg !10103     ; [#uses=1 type=i16] [debug line = 91:4]
  %195 = call %"class.std::basic_ostream"* @_ZNSolsEt(%"class.std::basic_ostream"* %189, i16 zeroext %194), !dbg !10103 ; [#uses=1 type=%"class.std::basic_ostream"*] [debug line = 91:4]
  %196 = call %"class.std::basic_ostream"* @_ZNSolsEPFRSoS_E(%"class.std::basic_ostream"* %195, %"class.std::basic_ostream"* (%"class.std::basic_ostream"*)* @_ZSt4endlIcSt11char_traitsIcEERSt13basic_ostreamIT_T0_ES6_), !dbg !10103 ; [#uses=0 type=%"class.std::basic_ostream"*] [debug line = 91:4]
  %197 = call %"class.std::basic_ostream"* @_ZStlsISt11char_traitsIcEERSt13basic_ostreamIcT_ES5_PKc(%"class.std::basic_ostream"* @_ZSt4cout, i8* getelementptr inbounds ([13 x i8]* @.str14, i32 0, i32 0)), !dbg !10104 ; [#uses=1 type=%"class.std::basic_ostream"*] [debug line = 92:4]
  %198 = load i32* %track, align 4, !dbg !10104   ; [#uses=1 type=i32] [debug line = 92:4]
  %199 = sext i32 %198 to i64, !dbg !10104        ; [#uses=1 type=i64] [debug line = 92:4]
  %200 = load i16** %6, align 8, !dbg !10104      ; [#uses=1 type=i16*] [debug line = 92:4]
  %201 = getelementptr inbounds i16* %200, i64 %199, !dbg !10104 ; [#uses=1 type=i16*] [debug line = 92:4]
  %202 = load i16* %201, align 2, !dbg !10104     ; [#uses=1 type=i16] [debug line = 92:4]
  %203 = call %"class.std::basic_ostream"* @_ZNSolsEt(%"class.std::basic_ostream"* %197, i16 zeroext %202), !dbg !10104 ; [#uses=1 type=%"class.std::basic_ostream"*] [debug line = 92:4]
  %204 = call %"class.std::basic_ostream"* @_ZNSolsEPFRSoS_E(%"class.std::basic_ostream"* %203, %"class.std::basic_ostream"* (%"class.std::basic_ostream"*)* @_ZSt4endlIcSt11char_traitsIcEERSt13basic_ostreamIT_T0_ES6_), !dbg !10104 ; [#uses=0 type=%"class.std::basic_ostream"*] [debug line = 92:4]
  call void @llvm.dbg.declare(metadata !{i16* %clus_eta}, metadata !10105), !dbg !10106 ; [debug line = 95:13] [debug variable = clus_eta]
  %205 = load i32* %track, align 4, !dbg !10107   ; [#uses=1 type=i32] [debug line = 95:62]
  %206 = sext i32 %205 to i64, !dbg !10107        ; [#uses=1 type=i64] [debug line = 95:62]
  %207 = getelementptr inbounds [10 x i16]* %track_peak_eta, i32 0, i64 %206, !dbg !10107 ; [#uses=1 type=i16*] [debug line = 95:62]
  %208 = load i16* %207, align 2, !dbg !10107     ; [#uses=1 type=i16] [debug line = 95:62]
  %209 = zext i16 %208 to i32, !dbg !10107        ; [#uses=1 type=i32] [debug line = 95:62]
  %210 = sdiv i32 %209, 4, !dbg !10107            ; [#uses=1 type=i32] [debug line = 95:62]
  %211 = trunc i32 %210 to i16, !dbg !10107       ; [#uses=1 type=i16] [debug line = 95:62]
  store i16 %211, i16* %clus_eta, align 2, !dbg !10107 ; [debug line = 95:62]
  call void @llvm.dbg.declare(metadata !{i16* %clus_phi}, metadata !10108), !dbg !10109 ; [debug line = 96:13] [debug variable = clus_phi]
  %212 = load i32* %track, align 4, !dbg !10110   ; [#uses=1 type=i32] [debug line = 96:62]
  %213 = sext i32 %212 to i64, !dbg !10110        ; [#uses=1 type=i64] [debug line = 96:62]
  %214 = getelementptr inbounds [10 x i16]* %track_peak_phi, i32 0, i64 %213, !dbg !10110 ; [#uses=1 type=i16*] [debug line = 96:62]
  %215 = load i16* %214, align 2, !dbg !10110     ; [#uses=1 type=i16] [debug line = 96:62]
  %216 = zext i16 %215 to i32, !dbg !10110        ; [#uses=1 type=i32] [debug line = 96:62]
  %217 = srem i32 %216, 4, !dbg !10110            ; [#uses=1 type=i32] [debug line = 96:62]
  %218 = trunc i32 %217 to i16, !dbg !10110       ; [#uses=1 type=i16] [debug line = 96:62]
  store i16 %218, i16* %clus_phi, align 2, !dbg !10110 ; [debug line = 96:62]
  call void @llvm.dbg.declare(metadata !{[3 x [3 x %struct.ap_fixed]]* %diff}, metadata !10111), !dbg !10115 ; [debug line = 98:19] [debug variable = diff]
  %219 = getelementptr inbounds [3 x [3 x %struct.ap_fixed]]* %diff, i32 0, i32 0, i32 0, !dbg !10116 ; [#uses=0 type=%struct.ap_fixed*] [debug line = 98:29]
  br label %arrayctor.loop

arrayctor.loop:                                   ; preds = %arrayctor.loop1, %143
  %220 = phi i32 [ 0, %143 ], [ %221, %arrayctor.loop1 ], !dbg !10116 ; [#uses=3 type=i32] [debug line = 98:29]
  %221 = add i32 %220, 1, !dbg !10116             ; [#uses=1 type=i32] [debug line = 98:29]
  %222 = getelementptr inbounds [3 x [3 x %struct.ap_fixed]]* %diff, i32 0, i32 %220, !dbg !10116 ; [#uses=1 type=[3 x %struct.ap_fixed]*] [debug line = 98:29]
  br label %arrayctor.loop3

arrayctor.loop3:                                  ; preds = %arrayctor.loop3, %arrayctor.loop
  %223 = phi i32 [ 0, %arrayctor.loop ], [ %224, %arrayctor.loop3 ], !dbg !10116 ; [#uses=3 type=i32] [debug line = 98:29]
  %224 = add i32 %223, 1, !dbg !10116             ; [#uses=1 type=i32] [debug line = 98:29]
  %225 = getelementptr inbounds [3 x %struct.ap_fixed]* %222, i32 0, i32 %223, !dbg !10116 ; [#uses=1 type=%struct.ap_fixed*] [debug line = 98:29]
  call void @_ZN8ap_fixedILi10ELi2EL9ap_q_mode5EL9ap_o_mode3ELi0EEC1Ev(%struct.ap_fixed* %225), !dbg !10116 ; [debug line = 98:29]
  %226 = icmp eq i32 %223, 2, !dbg !10116         ; [#uses=1 type=i1] [debug line = 98:29]
  br i1 %226, label %arrayctor.loop2, label %arrayctor.loop3, !dbg !10116 ; [debug line = 98:29]

arrayctor.loop2:                                  ; preds = %arrayctor.loop3
  br label %arrayctor.loop1, !dbg !10116          ; [debug line = 98:29]

; <label>:227                                     ; preds = %arrayctor.loop1
  br label %228, !dbg !10116                      ; [debug line = 98:29]

; <label>:228                                     ; preds = %227
  call void @llvm.dbg.declare(metadata !{i32* %a}, metadata !10117), !dbg !10119 ; [debug line = 99:12] [debug variable = a]
  store i32 0, i32* %a, align 4, !dbg !10120      ; [debug line = 99:17]
  br label %229, !dbg !10120                      ; [debug line = 99:17]

; <label>:229                                     ; preds = %249, %228
  %230 = load i32* %a, align 4, !dbg !10120       ; [#uses=1 type=i32] [debug line = 99:17]
  %231 = icmp slt i32 %230, 3, !dbg !10120        ; [#uses=1 type=i1] [debug line = 99:17]
  br i1 %231, label %232, label %252, !dbg !10120 ; [debug line = 99:17]

; <label>:232                                     ; preds = %229
  call void @llvm.dbg.declare(metadata !{i32* %b}, metadata !10121), !dbg !10124 ; [debug line = 100:14] [debug variable = b]
  store i32 0, i32* %b, align 4, !dbg !10125      ; [debug line = 100:19]
  br label %233, !dbg !10125                      ; [debug line = 100:19]

; <label>:233                                     ; preds = %244, %232
  %234 = load i32* %b, align 4, !dbg !10125       ; [#uses=1 type=i32] [debug line = 100:19]
  %235 = icmp slt i32 %234, 3, !dbg !10125        ; [#uses=1 type=i1] [debug line = 100:19]
  br i1 %235, label %236, label %248, !dbg !10125 ; [debug line = 100:19]

; <label>:236                                     ; preds = %233
  %237 = load i32* %b, align 4, !dbg !10126       ; [#uses=1 type=i32] [debug line = 101:6]
  %238 = sext i32 %237 to i64, !dbg !10126        ; [#uses=1 type=i64] [debug line = 101:6]
  %239 = load i32* %a, align 4, !dbg !10126       ; [#uses=1 type=i32] [debug line = 101:6]
  %240 = sext i32 %239 to i64, !dbg !10126        ; [#uses=1 type=i64] [debug line = 101:6]
  %241 = getelementptr inbounds [3 x [3 x %struct.ap_fixed]]* %diff, i32 0, i64 %240, !dbg !10126 ; [#uses=1 type=[3 x %struct.ap_fixed]*] [debug line = 101:6]
  %242 = getelementptr inbounds [3 x %struct.ap_fixed]* %241, i32 0, i64 %238, !dbg !10126 ; [#uses=1 type=%struct.ap_fixed*] [debug line = 101:6]
  call void @_ZN8ap_fixedILi10ELi2EL9ap_q_mode5EL9ap_o_mode3ELi0EEC1Ei(%struct.ap_fixed* %15, i32 0), !dbg !10126 ; [debug line = 101:6]
  %243 = call %struct.ap_fixed* @_ZN8ap_fixedILi10ELi2EL9ap_q_mode5EL9ap_o_mode3ELi0EEaSERKS2_(%struct.ap_fixed* %242, %struct.ap_fixed* %15), !dbg !10126 ; [#uses=0 type=%struct.ap_fixed*] [debug line = 101:6]
  br label %244, !dbg !10128                      ; [debug line = 102:5]

; <label>:244                                     ; preds = %236
  %245 = load i32* %b, align 4, !dbg !10129       ; [#uses=1 type=i32] [debug line = 100:26]
  %246 = add nsw i32 %245, 1, !dbg !10129         ; [#uses=1 type=i32] [debug line = 100:26]
  store i32 %246, i32* %b, align 4, !dbg !10129   ; [debug line = 100:26]
  br label %233, !dbg !10129                      ; [debug line = 100:26]

arrayctor.loop1:                                  ; preds = %arrayctor.loop2
  %247 = icmp eq i32 %220, 2, !dbg !10116         ; [#uses=1 type=i1] [debug line = 98:29]
  br i1 %247, label %227, label %arrayctor.loop, !dbg !10116 ; [debug line = 98:29]

; <label>:248                                     ; preds = %233
  br label %249, !dbg !10130                      ; [debug line = 103:4]

; <label>:249                                     ; preds = %248
  %250 = load i32* %a, align 4, !dbg !10131       ; [#uses=1 type=i32] [debug line = 99:26]
  %251 = add nsw i32 %250, 1, !dbg !10131         ; [#uses=1 type=i32] [debug line = 99:26]
  store i32 %251, i32* %a, align 4, !dbg !10131   ; [debug line = 99:26]
  br label %229, !dbg !10131                      ; [debug line = 99:26]

; <label>:252                                     ; preds = %229
  call void @llvm.dbg.declare(metadata !{i16* %eta}, metadata !10132), !dbg !10133 ; [debug line = 105:13] [debug variable = eta]
  %253 = load i16* %clus_eta, align 2, !dbg !10134 ; [#uses=1 type=i16] [debug line = 105:27]
  store i16 %253, i16* %eta, align 2, !dbg !10134 ; [debug line = 105:27]
  call void @llvm.dbg.declare(metadata !{i16* %phi}, metadata !10135), !dbg !10136 ; [debug line = 106:13] [debug variable = phi]
  %254 = load i16* %clus_phi, align 2, !dbg !10137 ; [#uses=1 type=i16] [debug line = 106:27]
  store i16 %254, i16* %phi, align 2, !dbg !10137 ; [debug line = 106:27]
  call void @llvm.dbg.declare(metadata !{i16* %cluster_trial}, metadata !10138), !dbg !10139 ; [debug line = 107:13] [debug variable = cluster_trial]
  %255 = load i16* %eta, align 2, !dbg !10140     ; [#uses=1 type=i16] [debug line = 107:57]
  %256 = zext i16 %255 to i32, !dbg !10140        ; [#uses=1 type=i32] [debug line = 107:57]
  %257 = mul nsw i32 %256, 4, !dbg !10140         ; [#uses=1 type=i32] [debug line = 107:57]
  %258 = load i16* %phi, align 2, !dbg !10140     ; [#uses=1 type=i16] [debug line = 107:57]
  %259 = zext i16 %258 to i32, !dbg !10140        ; [#uses=1 type=i32] [debug line = 107:57]
  %260 = add nsw i32 %257, %259, !dbg !10140      ; [#uses=1 type=i32] [debug line = 107:57]
  %261 = trunc i32 %260 to i16, !dbg !10140       ; [#uses=1 type=i16] [debug line = 107:57]
  store i16 %261, i16* %cluster_trial, align 2, !dbg !10140 ; [debug line = 107:57]
  %262 = call %"class.std::basic_ostream"* @_ZStlsISt11char_traitsIcEERSt13basic_ostreamIcT_ES5_PKc(%"class.std::basic_ostream"* @_ZSt4cout, i8* getelementptr inbounds ([4 x i8]* @.str15, i32 0, i32 0)), !dbg !10141 ; [#uses=1 type=%"class.std::basic_ostream"*] [debug line = 109:4]
  %263 = load i16* %eta, align 2, !dbg !10141     ; [#uses=1 type=i16] [debug line = 109:4]
  %264 = call %"class.std::basic_ostream"* @_ZNSolsEt(%"class.std::basic_ostream"* %262, i16 zeroext %263), !dbg !10141 ; [#uses=1 type=%"class.std::basic_ostream"*] [debug line = 109:4]
  %265 = call %"class.std::basic_ostream"* @_ZStlsISt11char_traitsIcEERSt13basic_ostreamIcT_ES5_PKc(%"class.std::basic_ostream"* %264, i8* getelementptr inbounds ([4 x i8]* @.str16, i32 0, i32 0)), !dbg !10141 ; [#uses=1 type=%"class.std::basic_ostream"*] [debug line = 109:4]
  %266 = load i16* %phi, align 2, !dbg !10141     ; [#uses=1 type=i16] [debug line = 109:4]
  %267 = call %"class.std::basic_ostream"* @_ZNSolsEt(%"class.std::basic_ostream"* %265, i16 zeroext %266), !dbg !10141 ; [#uses=1 type=%"class.std::basic_ostream"*] [debug line = 109:4]
  %268 = call %"class.std::basic_ostream"* @_ZNSolsEPFRSoS_E(%"class.std::basic_ostream"* %267, %"class.std::basic_ostream"* (%"class.std::basic_ostream"*)* @_ZSt4endlIcSt11char_traitsIcEERSt13basic_ostreamIT_T0_ES6_), !dbg !10141 ; [#uses=0 type=%"class.std::basic_ostream"*] [debug line = 109:4]
  %269 = call %"class.std::basic_ostream"* @_ZStlsISt11char_traitsIcEERSt13basic_ostreamIcT_ES5_PKc(%"class.std::basic_ostream"* @_ZSt4cout, i8* getelementptr inbounds ([11 x i8]* @.str17, i32 0, i32 0)), !dbg !10142 ; [#uses=1 type=%"class.std::basic_ostream"*] [debug line = 110:4]
  %270 = load i16* %cluster_trial, align 2, !dbg !10142 ; [#uses=1 type=i16] [debug line = 110:4]
  %271 = call %"class.std::basic_ostream"* @_ZNSolsEt(%"class.std::basic_ostream"* %269, i16 zeroext %270), !dbg !10142 ; [#uses=1 type=%"class.std::basic_ostream"*] [debug line = 110:4]
  %272 = call %"class.std::basic_ostream"* @_ZNSolsEPFRSoS_E(%"class.std::basic_ostream"* %271, %"class.std::basic_ostream"* (%"class.std::basic_ostream"*)* @_ZSt4endlIcSt11char_traitsIcEERSt13basic_ostreamIT_T0_ES6_), !dbg !10142 ; [#uses=0 type=%"class.std::basic_ostream"*] [debug line = 110:4]
  %273 = load i16* %phi, align 2, !dbg !10143     ; [#uses=1 type=i16] [debug line = 111:3]
  %274 = zext i16 %273 to i64, !dbg !10143        ; [#uses=1 type=i64] [debug line = 111:3]
  %275 = load i16* %eta, align 2, !dbg !10143     ; [#uses=1 type=i16] [debug line = 111:3]
  %276 = zext i16 %275 to i64, !dbg !10143        ; [#uses=1 type=i64] [debug line = 111:3]
  %277 = load [4 x i16]** %1, align 8, !dbg !10143 ; [#uses=1 type=[4 x i16]*] [debug line = 111:3]
  %278 = getelementptr inbounds [4 x i16]* %277, i64 %276, !dbg !10143 ; [#uses=1 type=[4 x i16]*] [debug line = 111:3]
  %279 = getelementptr inbounds [4 x i16]* %278, i32 0, i64 %274, !dbg !10143 ; [#uses=1 type=i16*] [debug line = 111:3]
  %280 = load i16* %279, align 2, !dbg !10143     ; [#uses=1 type=i16] [debug line = 111:3]
  %281 = zext i16 %280 to i32, !dbg !10143        ; [#uses=1 type=i32] [debug line = 111:3]
  %282 = icmp eq i32 %281, 0, !dbg !10143         ; [#uses=1 type=i1] [debug line = 111:3]
  br i1 %282, label %283, label %284, !dbg !10143 ; [debug line = 111:3]

; <label>:283                                     ; preds = %252
  br label %572, !dbg !10144                      ; [debug line = 111:32]

; <label>:284                                     ; preds = %252
  call void @llvm.dbg.declare(metadata !{i16* %diffEta}, metadata !10145), !dbg !10146 ; [debug line = 113:12] [debug variable = diffEta]
  %285 = load i16* %cluster_trial, align 2, !dbg !10147 ; [#uses=1 type=i16] [debug line = 113:71]
  %286 = zext i16 %285 to i64, !dbg !10147        ; [#uses=1 type=i64] [debug line = 113:71]
  %287 = getelementptr inbounds [68 x i16]* %clusterEta, i32 0, i64 %286, !dbg !10147 ; [#uses=1 type=i16*] [debug line = 113:71]
  %288 = load i16* %287, align 2, !dbg !10147     ; [#uses=1 type=i16] [debug line = 113:71]
  %289 = zext i16 %288 to i32, !dbg !10147        ; [#uses=1 type=i32] [debug line = 113:71]
  %290 = load i32* %track, align 4, !dbg !10147   ; [#uses=1 type=i32] [debug line = 113:71]
  %291 = sext i32 %290 to i64, !dbg !10147        ; [#uses=1 type=i64] [debug line = 113:71]
  %292 = getelementptr inbounds [10 x i16]* %track_peak_eta, i32 0, i64 %291, !dbg !10147 ; [#uses=1 type=i16*] [debug line = 113:71]
  %293 = load i16* %292, align 2, !dbg !10147     ; [#uses=1 type=i16] [debug line = 113:71]
  %294 = zext i16 %293 to i32, !dbg !10147        ; [#uses=1 type=i32] [debug line = 113:71]
  %295 = sub nsw i32 %289, %294, !dbg !10147      ; [#uses=1 type=i32] [debug line = 113:71]
  %296 = trunc i32 %295 to i16, !dbg !10147       ; [#uses=1 type=i16] [debug line = 113:71]
  store i16 %296, i16* %diffEta, align 2, !dbg !10147 ; [debug line = 113:71]
  %297 = load i16* %diffEta, align 2, !dbg !10148 ; [#uses=1 type=i16] [debug line = 114:3]
  %298 = zext i16 %297 to i32, !dbg !10148        ; [#uses=1 type=i32] [debug line = 114:3]
  %299 = icmp sge i32 %298, 2958, !dbg !10148     ; [#uses=1 type=i1] [debug line = 114:3]
  br i1 %299, label %300, label %313, !dbg !10148 ; [debug line = 114:3]

; <label>:300                                     ; preds = %284
  %301 = load i32* %track, align 4, !dbg !10149   ; [#uses=1 type=i32] [debug line = 114:30]
  %302 = sext i32 %301 to i64, !dbg !10149        ; [#uses=1 type=i64] [debug line = 114:30]
  %303 = getelementptr inbounds [10 x i16]* %track_peak_eta, i32 0, i64 %302, !dbg !10149 ; [#uses=1 type=i16*] [debug line = 114:30]
  %304 = load i16* %303, align 2, !dbg !10149     ; [#uses=1 type=i16] [debug line = 114:30]
  %305 = zext i16 %304 to i32, !dbg !10149        ; [#uses=1 type=i32] [debug line = 114:30]
  %306 = load i16* %cluster_trial, align 2, !dbg !10149 ; [#uses=1 type=i16] [debug line = 114:30]
  %307 = zext i16 %306 to i64, !dbg !10149        ; [#uses=1 type=i64] [debug line = 114:30]
  %308 = getelementptr inbounds [68 x i16]* %clusterEta, i32 0, i64 %307, !dbg !10149 ; [#uses=1 type=i16*] [debug line = 114:30]
  %309 = load i16* %308, align 2, !dbg !10149     ; [#uses=1 type=i16] [debug line = 114:30]
  %310 = zext i16 %309 to i32, !dbg !10149        ; [#uses=1 type=i32] [debug line = 114:30]
  %311 = sub nsw i32 %305, %310, !dbg !10149      ; [#uses=1 type=i32] [debug line = 114:30]
  %312 = trunc i32 %311 to i16, !dbg !10149       ; [#uses=1 type=i16] [debug line = 114:30]
  store i16 %312, i16* %diffEta, align 2, !dbg !10149 ; [debug line = 114:30]
  br label %313, !dbg !10149                      ; [debug line = 114:30]

; <label>:313                                     ; preds = %300, %284
  call void @llvm.dbg.declare(metadata !{i16* %diffPhi}, metadata !10150), !dbg !10151 ; [debug line = 115:12] [debug variable = diffPhi]
  %314 = load i16* %cluster_trial, align 2, !dbg !10152 ; [#uses=1 type=i16] [debug line = 115:71]
  %315 = zext i16 %314 to i64, !dbg !10152        ; [#uses=1 type=i64] [debug line = 115:71]
  %316 = getelementptr inbounds [68 x i16]* %clusterPhi, i32 0, i64 %315, !dbg !10152 ; [#uses=1 type=i16*] [debug line = 115:71]
  %317 = load i16* %316, align 2, !dbg !10152     ; [#uses=1 type=i16] [debug line = 115:71]
  %318 = zext i16 %317 to i32, !dbg !10152        ; [#uses=1 type=i32] [debug line = 115:71]
  %319 = load i32* %track, align 4, !dbg !10152   ; [#uses=1 type=i32] [debug line = 115:71]
  %320 = sext i32 %319 to i64, !dbg !10152        ; [#uses=1 type=i64] [debug line = 115:71]
  %321 = getelementptr inbounds [10 x i16]* %track_peak_phi, i32 0, i64 %320, !dbg !10152 ; [#uses=1 type=i16*] [debug line = 115:71]
  %322 = load i16* %321, align 2, !dbg !10152     ; [#uses=1 type=i16] [debug line = 115:71]
  %323 = zext i16 %322 to i32, !dbg !10152        ; [#uses=1 type=i32] [debug line = 115:71]
  %324 = sub nsw i32 %318, %323, !dbg !10152      ; [#uses=1 type=i32] [debug line = 115:71]
  %325 = trunc i32 %324 to i16, !dbg !10152       ; [#uses=1 type=i16] [debug line = 115:71]
  store i16 %325, i16* %diffPhi, align 2, !dbg !10152 ; [debug line = 115:71]
  %326 = load i16* %diffPhi, align 2, !dbg !10153 ; [#uses=1 type=i16] [debug line = 116:3]
  %327 = zext i16 %326 to i32, !dbg !10153        ; [#uses=1 type=i32] [debug line = 116:3]
  %328 = icmp sge i32 %327, 62831, !dbg !10153    ; [#uses=1 type=i1] [debug line = 116:3]
  br i1 %328, label %329, label %342, !dbg !10153 ; [debug line = 116:3]

; <label>:329                                     ; preds = %313
  %330 = load i32* %track, align 4, !dbg !10154   ; [#uses=1 type=i32] [debug line = 116:30]
  %331 = sext i32 %330 to i64, !dbg !10154        ; [#uses=1 type=i64] [debug line = 116:30]
  %332 = getelementptr inbounds [10 x i16]* %track_peak_phi, i32 0, i64 %331, !dbg !10154 ; [#uses=1 type=i16*] [debug line = 116:30]
  %333 = load i16* %332, align 2, !dbg !10154     ; [#uses=1 type=i16] [debug line = 116:30]
  %334 = zext i16 %333 to i32, !dbg !10154        ; [#uses=1 type=i32] [debug line = 116:30]
  %335 = load i16* %cluster_trial, align 2, !dbg !10154 ; [#uses=1 type=i16] [debug line = 116:30]
  %336 = zext i16 %335 to i64, !dbg !10154        ; [#uses=1 type=i64] [debug line = 116:30]
  %337 = getelementptr inbounds [68 x i16]* %clusterPhi, i32 0, i64 %336, !dbg !10154 ; [#uses=1 type=i16*] [debug line = 116:30]
  %338 = load i16* %337, align 2, !dbg !10154     ; [#uses=1 type=i16] [debug line = 116:30]
  %339 = zext i16 %338 to i32, !dbg !10154        ; [#uses=1 type=i32] [debug line = 116:30]
  %340 = sub nsw i32 %334, %339, !dbg !10154      ; [#uses=1 type=i32] [debug line = 116:30]
  %341 = trunc i32 %340 to i16, !dbg !10154       ; [#uses=1 type=i16] [debug line = 116:30]
  store i16 %341, i16* %diffPhi, align 2, !dbg !10154 ; [debug line = 116:30]
  br label %342, !dbg !10154                      ; [debug line = 116:30]

; <label>:342                                     ; preds = %329, %313
  %343 = load i16* %diffEta, align 2, !dbg !10155 ; [#uses=1 type=i16] [debug line = 119:3]
  %344 = zext i16 %343 to i32, !dbg !10155        ; [#uses=1 type=i32] [debug line = 119:3]
  %345 = icmp sle i32 %344, 1, !dbg !10155        ; [#uses=1 type=i1] [debug line = 119:3]
  br i1 %345, label %346, label %381, !dbg !10155 ; [debug line = 119:3]

; <label>:346                                     ; preds = %342
  %347 = load i16* %diffPhi, align 2, !dbg !10155 ; [#uses=1 type=i16] [debug line = 119:3]
  %348 = zext i16 %347 to i32, !dbg !10155        ; [#uses=1 type=i32] [debug line = 119:3]
  %349 = icmp sle i32 %348, 1, !dbg !10155        ; [#uses=1 type=i1] [debug line = 119:3]
  br i1 %349, label %350, label %381, !dbg !10155 ; [debug line = 119:3]

; <label>:350                                     ; preds = %346
  %351 = load i16* %cluster_trial, align 2, !dbg !10156 ; [#uses=1 type=i16] [debug line = 122:4]
  %352 = zext i16 %351 to i64, !dbg !10156        ; [#uses=1 type=i64] [debug line = 122:4]
  %353 = getelementptr inbounds [68 x i16]* %clusterEta, i32 0, i64 %352, !dbg !10156 ; [#uses=1 type=i16*] [debug line = 122:4]
  %354 = load i16* %353, align 2, !dbg !10156     ; [#uses=1 type=i16] [debug line = 122:4]
  %355 = load i32* %track, align 4, !dbg !10156   ; [#uses=1 type=i32] [debug line = 122:4]
  %356 = sext i32 %355 to i64, !dbg !10156        ; [#uses=1 type=i64] [debug line = 122:4]
  %357 = load i16** %8, align 8, !dbg !10156      ; [#uses=1 type=i16*] [debug line = 122:4]
  %358 = getelementptr inbounds i16* %357, i64 %356, !dbg !10156 ; [#uses=1 type=i16*] [debug line = 122:4]
  store i16 %354, i16* %358, align 2, !dbg !10156 ; [debug line = 122:4]
  %359 = load i16* %cluster_trial, align 2, !dbg !10158 ; [#uses=1 type=i16] [debug line = 123:4]
  %360 = zext i16 %359 to i64, !dbg !10158        ; [#uses=1 type=i64] [debug line = 123:4]
  %361 = getelementptr inbounds [68 x i16]* %clusterPhi, i32 0, i64 %360, !dbg !10158 ; [#uses=1 type=i16*] [debug line = 123:4]
  %362 = load i16* %361, align 2, !dbg !10158     ; [#uses=1 type=i16] [debug line = 123:4]
  %363 = load i32* %track, align 4, !dbg !10158   ; [#uses=1 type=i32] [debug line = 123:4]
  %364 = sext i32 %363 to i64, !dbg !10158        ; [#uses=1 type=i64] [debug line = 123:4]
  %365 = load i16** %9, align 8, !dbg !10158      ; [#uses=1 type=i16*] [debug line = 123:4]
  %366 = getelementptr inbounds i16* %365, i64 %364, !dbg !10158 ; [#uses=1 type=i16*] [debug line = 123:4]
  store i16 %362, i16* %366, align 2, !dbg !10158 ; [debug line = 123:4]
  %367 = load i32* %track, align 4, !dbg !10159   ; [#uses=1 type=i32] [debug line = 125:4]
  %368 = sext i32 %367 to i64, !dbg !10159        ; [#uses=1 type=i64] [debug line = 125:4]
  %369 = load i16** %4, align 8, !dbg !10159      ; [#uses=1 type=i16*] [debug line = 125:4]
  %370 = getelementptr inbounds i16* %369, i64 %368, !dbg !10159 ; [#uses=1 type=i16*] [debug line = 125:4]
  %371 = load i16* %370, align 2, !dbg !10159     ; [#uses=1 type=i16] [debug line = 125:4]
  %372 = zext i16 %371 to i32, !dbg !10159        ; [#uses=1 type=i32] [debug line = 125:4]
  %373 = load i16* %cluster_trial, align 2, !dbg !10159 ; [#uses=1 type=i16] [debug line = 125:4]
  %374 = zext i16 %373 to i64, !dbg !10159        ; [#uses=1 type=i64] [debug line = 125:4]
  %375 = load i16** %10, align 8, !dbg !10159     ; [#uses=1 type=i16*] [debug line = 125:4]
  %376 = getelementptr inbounds i16* %375, i64 %374, !dbg !10159 ; [#uses=2 type=i16*] [debug line = 125:4]
  %377 = load i16* %376, align 2, !dbg !10159     ; [#uses=1 type=i16] [debug line = 125:4]
  %378 = zext i16 %377 to i32, !dbg !10159        ; [#uses=1 type=i32] [debug line = 125:4]
  %379 = sub nsw i32 %378, %372, !dbg !10159      ; [#uses=1 type=i32] [debug line = 125:4]
  %380 = trunc i32 %379 to i16, !dbg !10159       ; [#uses=1 type=i16] [debug line = 125:4]
  store i16 %380, i16* %376, align 2, !dbg !10159 ; [debug line = 125:4]
  br label %572, !dbg !10160                      ; [debug line = 126:4]

; <label>:381                                     ; preds = %346, %342
  call void @llvm.dbg.declare(metadata !{%struct.ap_ufixed* %least_dist}, metadata !10161), !dbg !10162 ; [debug line = 131:19] [debug variable = least_dist]
  call void @_ZN9ap_ufixedILi10ELi2EL9ap_q_mode5EL9ap_o_mode3ELi0EEC1Ei(%struct.ap_ufixed* %least_dist, i32 100), !dbg !10163 ; [debug line = 131:35]
  call void @llvm.dbg.declare(metadata !{i32* %i}, metadata !10164), !dbg !10166 ; [debug line = 132:13] [debug variable = i]
  store i32 -1, i32* %i, align 4, !dbg !10167     ; [debug line = 132:19]
  br label %382, !dbg !10167                      ; [debug line = 132:19]

; <label>:382                                     ; preds = %565, %381
  %383 = load i32* %i, align 4, !dbg !10167       ; [#uses=1 type=i32] [debug line = 132:19]
  %384 = icmp slt i32 %383, 2, !dbg !10167        ; [#uses=1 type=i1] [debug line = 132:19]
  br i1 %384, label %385, label %568, !dbg !10167 ; [debug line = 132:19]

; <label>:385                                     ; preds = %382
  call void (...)* @_ssdm_RegionBegin(i8* getelementptr inbounds ([12 x i8]* @.str18, i32 0, i32 0)) nounwind, !dbg !10168 ; [debug line = 132:33]
  call void (...)* @_ssdm_Unroll(i32 0, i32 0, i32 0, i8* getelementptr inbounds ([1 x i8]* @.str13, i32 0, i32 0)) nounwind, !dbg !10170 ; [debug line = 133:1]
  call void @llvm.dbg.declare(metadata !{i32* %j}, metadata !10171), !dbg !10173 ; [debug line = 134:11] [debug variable = j]
  store i32 -1, i32* %j, align 4, !dbg !10174     ; [debug line = 134:17]
  br label %386, !dbg !10174                      ; [debug line = 134:17]

; <label>:386                                     ; preds = %561, %385
  %387 = load i32* %j, align 4, !dbg !10174       ; [#uses=1 type=i32] [debug line = 134:17]
  %388 = icmp slt i32 %387, 2, !dbg !10174        ; [#uses=1 type=i1] [debug line = 134:17]
  br i1 %388, label %389, label %564, !dbg !10174 ; [debug line = 134:17]

; <label>:389                                     ; preds = %386
  call void (...)* @_ssdm_RegionBegin(i8* getelementptr inbounds ([12 x i8]* @.str19, i32 0, i32 0)) nounwind, !dbg !10175 ; [debug line = 134:31]
  call void (...)* @_ssdm_Unroll(i32 0, i32 0, i32 0, i8* getelementptr inbounds ([1 x i8]* @.str13, i32 0, i32 0)) nounwind, !dbg !10177 ; [debug line = 135:1]
  %390 = load i32* %i, align 4, !dbg !10178       ; [#uses=1 type=i32] [debug line = 136:2]
  %391 = icmp eq i32 %390, 0, !dbg !10178         ; [#uses=1 type=i1] [debug line = 136:2]
  br i1 %391, label %392, label %396, !dbg !10178 ; [debug line = 136:2]

; <label>:392                                     ; preds = %389
  %393 = load i32* %j, align 4, !dbg !10178       ; [#uses=1 type=i32] [debug line = 136:2]
  %394 = icmp eq i32 %393, 0, !dbg !10178         ; [#uses=1 type=i1] [debug line = 136:2]
  br i1 %394, label %395, label %396, !dbg !10178 ; [debug line = 136:2]

; <label>:395                                     ; preds = %392
  br label %564, !dbg !10179                      ; [debug line = 136:19]

; <label>:396                                     ; preds = %392, %389
  call void @llvm.dbg.declare(metadata !{i16* %eta4}, metadata !10180), !dbg !10181 ; [debug line = 139:14] [debug variable = eta]
  %397 = load i16* %clus_eta, align 2, !dbg !10182 ; [#uses=1 type=i16] [debug line = 139:32]
  %398 = zext i16 %397 to i32, !dbg !10182        ; [#uses=1 type=i32] [debug line = 139:32]
  %399 = load i32* %i, align 4, !dbg !10182       ; [#uses=1 type=i32] [debug line = 139:32]
  %400 = add nsw i32 %398, %399, !dbg !10182      ; [#uses=1 type=i32] [debug line = 139:32]
  %401 = trunc i32 %400 to i16, !dbg !10182       ; [#uses=1 type=i16] [debug line = 139:32]
  store i16 %401, i16* %eta4, align 2, !dbg !10182 ; [debug line = 139:32]
  call void @llvm.dbg.declare(metadata !{i16* %phi5}, metadata !10183), !dbg !10184 ; [debug line = 140:14] [debug variable = phi]
  %402 = load i16* %clus_phi, align 2, !dbg !10185 ; [#uses=1 type=i16] [debug line = 140:32]
  %403 = zext i16 %402 to i32, !dbg !10185        ; [#uses=1 type=i32] [debug line = 140:32]
  %404 = load i32* %j, align 4, !dbg !10185       ; [#uses=1 type=i32] [debug line = 140:32]
  %405 = add nsw i32 %403, %404, !dbg !10185      ; [#uses=1 type=i32] [debug line = 140:32]
  %406 = trunc i32 %405 to i16, !dbg !10185       ; [#uses=1 type=i16] [debug line = 140:32]
  store i16 %406, i16* %phi5, align 2, !dbg !10185 ; [debug line = 140:32]
  call void @llvm.dbg.declare(metadata !{i16* %cluster_trial6}, metadata !10186), !dbg !10187 ; [debug line = 142:14] [debug variable = cluster_trial]
  %407 = load i16* %eta4, align 2, !dbg !10188    ; [#uses=1 type=i16] [debug line = 142:58]
  %408 = zext i16 %407 to i32, !dbg !10188        ; [#uses=1 type=i32] [debug line = 142:58]
  %409 = mul nsw i32 %408, 4, !dbg !10188         ; [#uses=1 type=i32] [debug line = 142:58]
  %410 = load i16* %phi5, align 2, !dbg !10188    ; [#uses=1 type=i16] [debug line = 142:58]
  %411 = zext i16 %410 to i32, !dbg !10188        ; [#uses=1 type=i32] [debug line = 142:58]
  %412 = add nsw i32 %409, %411, !dbg !10188      ; [#uses=1 type=i32] [debug line = 142:58]
  %413 = trunc i32 %412 to i16, !dbg !10188       ; [#uses=1 type=i16] [debug line = 142:58]
  store i16 %413, i16* %cluster_trial6, align 2, !dbg !10188 ; [debug line = 142:58]
  %414 = load i16* %cluster_trial6, align 2, !dbg !10189 ; [#uses=1 type=i16] [debug line = 143:5]
  %415 = zext i16 %414 to i32, !dbg !10189        ; [#uses=1 type=i32] [debug line = 143:5]
  %416 = icmp slt i32 %415, 0, !dbg !10189        ; [#uses=1 type=i1] [debug line = 143:5]
  br i1 %416, label %421, label %417, !dbg !10189 ; [debug line = 143:5]

; <label>:417                                     ; preds = %396
  %418 = load i16* %cluster_trial6, align 2, !dbg !10189 ; [#uses=1 type=i16] [debug line = 143:5]
  %419 = zext i16 %418 to i32, !dbg !10189        ; [#uses=1 type=i32] [debug line = 143:5]
  %420 = icmp sgt i32 %419, 67, !dbg !10189       ; [#uses=1 type=i1] [debug line = 143:5]
  br i1 %420, label %421, label %422, !dbg !10189 ; [debug line = 143:5]

; <label>:421                                     ; preds = %417, %396
  br label %564, !dbg !10190                      ; [debug line = 143:49]

; <label>:422                                     ; preds = %417
  call void @llvm.dbg.declare(metadata !{i16* %diffEta7}, metadata !10191), !dbg !10192 ; [debug line = 145:14] [debug variable = diffEta]
  %423 = load i16* %cluster_trial6, align 2, !dbg !10193 ; [#uses=1 type=i16] [debug line = 145:73]
  %424 = zext i16 %423 to i64, !dbg !10193        ; [#uses=1 type=i64] [debug line = 145:73]
  %425 = getelementptr inbounds [68 x i16]* %clusterEta, i32 0, i64 %424, !dbg !10193 ; [#uses=1 type=i16*] [debug line = 145:73]
  %426 = load i16* %425, align 2, !dbg !10193     ; [#uses=1 type=i16] [debug line = 145:73]
  %427 = zext i16 %426 to i32, !dbg !10193        ; [#uses=1 type=i32] [debug line = 145:73]
  %428 = load i32* %track, align 4, !dbg !10193   ; [#uses=1 type=i32] [debug line = 145:73]
  %429 = sext i32 %428 to i64, !dbg !10193        ; [#uses=1 type=i64] [debug line = 145:73]
  %430 = getelementptr inbounds [10 x i16]* %track_peak_eta, i32 0, i64 %429, !dbg !10193 ; [#uses=1 type=i16*] [debug line = 145:73]
  %431 = load i16* %430, align 2, !dbg !10193     ; [#uses=1 type=i16] [debug line = 145:73]
  %432 = zext i16 %431 to i32, !dbg !10193        ; [#uses=1 type=i32] [debug line = 145:73]
  %433 = sub nsw i32 %427, %432, !dbg !10193      ; [#uses=1 type=i32] [debug line = 145:73]
  %434 = trunc i32 %433 to i16, !dbg !10193       ; [#uses=1 type=i16] [debug line = 145:73]
  store i16 %434, i16* %diffEta7, align 2, !dbg !10193 ; [debug line = 145:73]
  %435 = load i16* %diffEta7, align 2, !dbg !10194 ; [#uses=1 type=i16] [debug line = 146:5]
  %436 = zext i16 %435 to i32, !dbg !10194        ; [#uses=1 type=i32] [debug line = 146:5]
  %437 = icmp sge i32 %436, 2958, !dbg !10194     ; [#uses=1 type=i1] [debug line = 146:5]
  br i1 %437, label %438, label %451, !dbg !10194 ; [debug line = 146:5]

; <label>:438                                     ; preds = %422
  %439 = load i32* %track, align 4, !dbg !10195   ; [#uses=1 type=i32] [debug line = 146:32]
  %440 = sext i32 %439 to i64, !dbg !10195        ; [#uses=1 type=i64] [debug line = 146:32]
  %441 = getelementptr inbounds [10 x i16]* %track_peak_eta, i32 0, i64 %440, !dbg !10195 ; [#uses=1 type=i16*] [debug line = 146:32]
  %442 = load i16* %441, align 2, !dbg !10195     ; [#uses=1 type=i16] [debug line = 146:32]
  %443 = zext i16 %442 to i32, !dbg !10195        ; [#uses=1 type=i32] [debug line = 146:32]
  %444 = load i16* %cluster_trial6, align 2, !dbg !10195 ; [#uses=1 type=i16] [debug line = 146:32]
  %445 = zext i16 %444 to i64, !dbg !10195        ; [#uses=1 type=i64] [debug line = 146:32]
  %446 = getelementptr inbounds [68 x i16]* %clusterEta, i32 0, i64 %445, !dbg !10195 ; [#uses=1 type=i16*] [debug line = 146:32]
  %447 = load i16* %446, align 2, !dbg !10195     ; [#uses=1 type=i16] [debug line = 146:32]
  %448 = zext i16 %447 to i32, !dbg !10195        ; [#uses=1 type=i32] [debug line = 146:32]
  %449 = sub nsw i32 %443, %448, !dbg !10195      ; [#uses=1 type=i32] [debug line = 146:32]
  %450 = trunc i32 %449 to i16, !dbg !10195       ; [#uses=1 type=i16] [debug line = 146:32]
  store i16 %450, i16* %diffEta7, align 2, !dbg !10195 ; [debug line = 146:32]
  br label %451, !dbg !10195                      ; [debug line = 146:32]

; <label>:451                                     ; preds = %438, %422
  call void @llvm.dbg.declare(metadata !{i16* %diffPhi8}, metadata !10196), !dbg !10197 ; [debug line = 147:14] [debug variable = diffPhi]
  %452 = load i16* %cluster_trial6, align 2, !dbg !10198 ; [#uses=1 type=i16] [debug line = 147:73]
  %453 = zext i16 %452 to i64, !dbg !10198        ; [#uses=1 type=i64] [debug line = 147:73]
  %454 = getelementptr inbounds [68 x i16]* %clusterPhi, i32 0, i64 %453, !dbg !10198 ; [#uses=1 type=i16*] [debug line = 147:73]
  %455 = load i16* %454, align 2, !dbg !10198     ; [#uses=1 type=i16] [debug line = 147:73]
  %456 = zext i16 %455 to i32, !dbg !10198        ; [#uses=1 type=i32] [debug line = 147:73]
  %457 = load i32* %track, align 4, !dbg !10198   ; [#uses=1 type=i32] [debug line = 147:73]
  %458 = sext i32 %457 to i64, !dbg !10198        ; [#uses=1 type=i64] [debug line = 147:73]
  %459 = getelementptr inbounds [10 x i16]* %track_peak_phi, i32 0, i64 %458, !dbg !10198 ; [#uses=1 type=i16*] [debug line = 147:73]
  %460 = load i16* %459, align 2, !dbg !10198     ; [#uses=1 type=i16] [debug line = 147:73]
  %461 = zext i16 %460 to i32, !dbg !10198        ; [#uses=1 type=i32] [debug line = 147:73]
  %462 = sub nsw i32 %456, %461, !dbg !10198      ; [#uses=1 type=i32] [debug line = 147:73]
  %463 = trunc i32 %462 to i16, !dbg !10198       ; [#uses=1 type=i16] [debug line = 147:73]
  store i16 %463, i16* %diffPhi8, align 2, !dbg !10198 ; [debug line = 147:73]
  %464 = load i16* %diffPhi8, align 2, !dbg !10199 ; [#uses=1 type=i16] [debug line = 148:5]
  %465 = zext i16 %464 to i32, !dbg !10199        ; [#uses=1 type=i32] [debug line = 148:5]
  %466 = icmp sge i32 %465, 62831, !dbg !10199    ; [#uses=1 type=i1] [debug line = 148:5]
  br i1 %466, label %467, label %480, !dbg !10199 ; [debug line = 148:5]

; <label>:467                                     ; preds = %451
  %468 = load i32* %track, align 4, !dbg !10200   ; [#uses=1 type=i32] [debug line = 148:32]
  %469 = sext i32 %468 to i64, !dbg !10200        ; [#uses=1 type=i64] [debug line = 148:32]
  %470 = getelementptr inbounds [10 x i16]* %track_peak_phi, i32 0, i64 %469, !dbg !10200 ; [#uses=1 type=i16*] [debug line = 148:32]
  %471 = load i16* %470, align 2, !dbg !10200     ; [#uses=1 type=i16] [debug line = 148:32]
  %472 = zext i16 %471 to i32, !dbg !10200        ; [#uses=1 type=i32] [debug line = 148:32]
  %473 = load i16* %cluster_trial6, align 2, !dbg !10200 ; [#uses=1 type=i16] [debug line = 148:32]
  %474 = zext i16 %473 to i64, !dbg !10200        ; [#uses=1 type=i64] [debug line = 148:32]
  %475 = getelementptr inbounds [68 x i16]* %clusterPhi, i32 0, i64 %474, !dbg !10200 ; [#uses=1 type=i16*] [debug line = 148:32]
  %476 = load i16* %475, align 2, !dbg !10200     ; [#uses=1 type=i16] [debug line = 148:32]
  %477 = zext i16 %476 to i32, !dbg !10200        ; [#uses=1 type=i32] [debug line = 148:32]
  %478 = sub nsw i32 %472, %477, !dbg !10200      ; [#uses=1 type=i32] [debug line = 148:32]
  %479 = trunc i32 %478 to i16, !dbg !10200       ; [#uses=1 type=i16] [debug line = 148:32]
  store i16 %479, i16* %diffPhi8, align 2, !dbg !10200 ; [debug line = 148:32]
  br label %480, !dbg !10200                      ; [debug line = 148:32]

; <label>:480                                     ; preds = %467, %451
  call void @llvm.dbg.declare(metadata !{i16* %common}, metadata !10201), !dbg !10202 ; [debug line = 149:14] [debug variable = common]
  call void @llvm.dbg.declare(metadata !{i16* %uncommon}, metadata !10203), !dbg !10204 ; [debug line = 149:22] [debug variable = uncommon]
  %481 = load i16* %diffEta7, align 2, !dbg !10205 ; [#uses=1 type=i16] [debug line = 150:5]
  %482 = zext i16 %481 to i32, !dbg !10205        ; [#uses=1 type=i32] [debug line = 150:5]
  %483 = load i16* %diffPhi8, align 2, !dbg !10205 ; [#uses=1 type=i16] [debug line = 150:5]
  %484 = zext i16 %483 to i32, !dbg !10205        ; [#uses=1 type=i32] [debug line = 150:5]
  %485 = icmp sge i32 %482, %484, !dbg !10205     ; [#uses=1 type=i1] [debug line = 150:5]
  br i1 %485, label %486, label %499, !dbg !10205 ; [debug line = 150:5]

; <label>:486                                     ; preds = %480
  %487 = load i16* %diffEta7, align 2, !dbg !10206 ; [#uses=1 type=i16] [debug line = 152:6]
  %488 = zext i16 %487 to i32, !dbg !10206        ; [#uses=1 type=i32] [debug line = 152:6]
  %489 = load i16* %diffPhi8, align 2, !dbg !10206 ; [#uses=1 type=i16] [debug line = 152:6]
  %490 = zext i16 %489 to i32, !dbg !10206        ; [#uses=1 type=i32] [debug line = 152:6]
  %491 = sub nsw i32 %488, %490, !dbg !10206      ; [#uses=1 type=i32] [debug line = 152:6]
  %492 = trunc i32 %491 to i16, !dbg !10206       ; [#uses=1 type=i16] [debug line = 152:6]
  store i16 %492, i16* %uncommon, align 2, !dbg !10206 ; [debug line = 152:6]
  %493 = load i16* %diffEta7, align 2, !dbg !10208 ; [#uses=1 type=i16] [debug line = 153:6]
  %494 = zext i16 %493 to i32, !dbg !10208        ; [#uses=1 type=i32] [debug line = 153:6]
  %495 = load i16* %uncommon, align 2, !dbg !10208 ; [#uses=1 type=i16] [debug line = 153:6]
  %496 = zext i16 %495 to i32, !dbg !10208        ; [#uses=1 type=i32] [debug line = 153:6]
  %497 = sub nsw i32 %494, %496, !dbg !10208      ; [#uses=1 type=i32] [debug line = 153:6]
  %498 = trunc i32 %497 to i16, !dbg !10208       ; [#uses=1 type=i16] [debug line = 153:6]
  store i16 %498, i16* %common, align 2, !dbg !10208 ; [debug line = 153:6]
  br label %512, !dbg !10209                      ; [debug line = 154:6]

; <label>:499                                     ; preds = %480
  %500 = load i16* %diffPhi8, align 2, !dbg !10210 ; [#uses=1 type=i16] [debug line = 157:6]
  %501 = zext i16 %500 to i32, !dbg !10210        ; [#uses=1 type=i32] [debug line = 157:6]
  %502 = load i16* %diffEta7, align 2, !dbg !10210 ; [#uses=1 type=i16] [debug line = 157:6]
  %503 = zext i16 %502 to i32, !dbg !10210        ; [#uses=1 type=i32] [debug line = 157:6]
  %504 = sub nsw i32 %501, %503, !dbg !10210      ; [#uses=1 type=i32] [debug line = 157:6]
  %505 = trunc i32 %504 to i16, !dbg !10210       ; [#uses=1 type=i16] [debug line = 157:6]
  store i16 %505, i16* %uncommon, align 2, !dbg !10210 ; [debug line = 157:6]
  %506 = load i16* %diffPhi8, align 2, !dbg !10212 ; [#uses=1 type=i16] [debug line = 158:6]
  %507 = zext i16 %506 to i32, !dbg !10212        ; [#uses=1 type=i32] [debug line = 158:6]
  %508 = load i16* %uncommon, align 2, !dbg !10212 ; [#uses=1 type=i16] [debug line = 158:6]
  %509 = zext i16 %508 to i32, !dbg !10212        ; [#uses=1 type=i32] [debug line = 158:6]
  %510 = sub nsw i32 %507, %509, !dbg !10212      ; [#uses=1 type=i32] [debug line = 158:6]
  %511 = trunc i32 %510 to i16, !dbg !10212       ; [#uses=1 type=i16] [debug line = 158:6]
  store i16 %511, i16* %common, align 2, !dbg !10212 ; [debug line = 158:6]
  br label %512

; <label>:512                                     ; preds = %499, %486
  %513 = load i32* %j, align 4, !dbg !10213       ; [#uses=1 type=i32] [debug line = 164:8]
  %514 = sext i32 %513 to i64, !dbg !10213        ; [#uses=1 type=i64] [debug line = 164:8]
  %515 = load i32* %i, align 4, !dbg !10213       ; [#uses=1 type=i32] [debug line = 164:8]
  %516 = sext i32 %515 to i64, !dbg !10213        ; [#uses=1 type=i64] [debug line = 164:8]
  %517 = getelementptr inbounds [3 x [3 x %struct.ap_fixed]]* %diff, i32 0, i64 %516, !dbg !10213 ; [#uses=1 type=[3 x %struct.ap_fixed]*] [debug line = 164:8]
  %518 = getelementptr inbounds [3 x %struct.ap_fixed]* %517, i32 0, i64 %514, !dbg !10213 ; [#uses=1 type=%struct.ap_fixed*] [debug line = 164:8]
  %519 = bitcast %struct.ap_fixed* %518 to %struct.ap_fixed_base.7*, !dbg !10213 ; [#uses=1 type=%struct.ap_fixed_base.7*] [debug line = 164:8]
  %520 = bitcast %struct.ap_ufixed* %least_dist to %struct.ap_fixed_base*, !dbg !10213 ; [#uses=1 type=%struct.ap_fixed_base*] [debug line = 164:8]
  %521 = call zeroext i1 @_ZNK13ap_fixed_baseILi10ELi2ELb1EL9ap_q_mode5EL9ap_o_mode3ELi0EEltILi10ELi2ELb0ELS0_5ELS1_3ELi0EEEbRKS_IXT_EXT0_EXT1_EXT2_EXT3_EXT4_EE(%struct.ap_fixed_base.7* %519, %struct.ap_fixed_base* %520), !dbg !10213 ; [#uses=1 type=i1] [debug line = 164:8]
  br i1 %521, label %522, label %560, !dbg !10213 ; [debug line = 164:8]

; <label>:522                                     ; preds = %512
  %523 = load i32* %j, align 4, !dbg !10214       ; [#uses=1 type=i32] [debug line = 165:6]
  %524 = sext i32 %523 to i64, !dbg !10214        ; [#uses=1 type=i64] [debug line = 165:6]
  %525 = load i32* %i, align 4, !dbg !10214       ; [#uses=1 type=i32] [debug line = 165:6]
  %526 = sext i32 %525 to i64, !dbg !10214        ; [#uses=1 type=i64] [debug line = 165:6]
  %527 = getelementptr inbounds [3 x [3 x %struct.ap_fixed]]* %diff, i32 0, i64 %526, !dbg !10214 ; [#uses=1 type=[3 x %struct.ap_fixed]*] [debug line = 165:6]
  %528 = getelementptr inbounds [3 x %struct.ap_fixed]* %527, i32 0, i64 %524, !dbg !10214 ; [#uses=1 type=%struct.ap_fixed*] [debug line = 165:6]
  call void @_ZN9ap_ufixedILi10ELi2EL9ap_q_mode5EL9ap_o_mode3ELi0EEC1ILi10ELi2ELS0_5ELS1_3ELi0EEERK8ap_fixedIXT_EXT0_EXT1_EXT2_EXT3_EE(%struct.ap_ufixed* %16, %struct.ap_fixed* %528), !dbg !10214 ; [debug line = 165:6]
  %529 = call %struct.ap_ufixed* @_ZN9ap_ufixedILi10ELi2EL9ap_q_mode5EL9ap_o_mode3ELi0EEaSERKS2_(%struct.ap_ufixed* %least_dist, %struct.ap_ufixed* %16), !dbg !10214 ; [#uses=0 type=%struct.ap_ufixed*] [debug line = 165:6]
  %530 = load i16* %cluster_trial6, align 2, !dbg !10216 ; [#uses=1 type=i16] [debug line = 167:6]
  %531 = zext i16 %530 to i64, !dbg !10216        ; [#uses=1 type=i64] [debug line = 167:6]
  %532 = getelementptr inbounds [68 x i16]* %clusterEta, i32 0, i64 %531, !dbg !10216 ; [#uses=1 type=i16*] [debug line = 167:6]
  %533 = load i16* %532, align 2, !dbg !10216     ; [#uses=1 type=i16] [debug line = 167:6]
  %534 = load i32* %track, align 4, !dbg !10216   ; [#uses=1 type=i32] [debug line = 167:6]
  %535 = sext i32 %534 to i64, !dbg !10216        ; [#uses=1 type=i64] [debug line = 167:6]
  %536 = load i16** %8, align 8, !dbg !10216      ; [#uses=1 type=i16*] [debug line = 167:6]
  %537 = getelementptr inbounds i16* %536, i64 %535, !dbg !10216 ; [#uses=1 type=i16*] [debug line = 167:6]
  store i16 %533, i16* %537, align 2, !dbg !10216 ; [debug line = 167:6]
  %538 = load i16* %cluster_trial6, align 2, !dbg !10217 ; [#uses=1 type=i16] [debug line = 168:6]
  %539 = zext i16 %538 to i64, !dbg !10217        ; [#uses=1 type=i64] [debug line = 168:6]
  %540 = getelementptr inbounds [68 x i16]* %clusterPhi, i32 0, i64 %539, !dbg !10217 ; [#uses=1 type=i16*] [debug line = 168:6]
  %541 = load i16* %540, align 2, !dbg !10217     ; [#uses=1 type=i16] [debug line = 168:6]
  %542 = load i32* %track, align 4, !dbg !10217   ; [#uses=1 type=i32] [debug line = 168:6]
  %543 = sext i32 %542 to i64, !dbg !10217        ; [#uses=1 type=i64] [debug line = 168:6]
  %544 = load i16** %9, align 8, !dbg !10217      ; [#uses=1 type=i16*] [debug line = 168:6]
  %545 = getelementptr inbounds i16* %544, i64 %543, !dbg !10217 ; [#uses=1 type=i16*] [debug line = 168:6]
  store i16 %541, i16* %545, align 2, !dbg !10217 ; [debug line = 168:6]
  %546 = load i32* %track, align 4, !dbg !10218   ; [#uses=1 type=i32] [debug line = 170:6]
  %547 = sext i32 %546 to i64, !dbg !10218        ; [#uses=1 type=i64] [debug line = 170:6]
  %548 = load i16** %4, align 8, !dbg !10218      ; [#uses=1 type=i16*] [debug line = 170:6]
  %549 = getelementptr inbounds i16* %548, i64 %547, !dbg !10218 ; [#uses=1 type=i16*] [debug line = 170:6]
  %550 = load i16* %549, align 2, !dbg !10218     ; [#uses=1 type=i16] [debug line = 170:6]
  %551 = zext i16 %550 to i32, !dbg !10218        ; [#uses=1 type=i32] [debug line = 170:6]
  %552 = load i16* %cluster_trial6, align 2, !dbg !10218 ; [#uses=1 type=i16] [debug line = 170:6]
  %553 = zext i16 %552 to i64, !dbg !10218        ; [#uses=1 type=i64] [debug line = 170:6]
  %554 = load i16** %10, align 8, !dbg !10218     ; [#uses=1 type=i16*] [debug line = 170:6]
  %555 = getelementptr inbounds i16* %554, i64 %553, !dbg !10218 ; [#uses=2 type=i16*] [debug line = 170:6]
  %556 = load i16* %555, align 2, !dbg !10218     ; [#uses=1 type=i16] [debug line = 170:6]
  %557 = zext i16 %556 to i32, !dbg !10218        ; [#uses=1 type=i32] [debug line = 170:6]
  %558 = sub nsw i32 %557, %551, !dbg !10218      ; [#uses=1 type=i32] [debug line = 170:6]
  %559 = trunc i32 %558 to i16, !dbg !10218       ; [#uses=1 type=i16] [debug line = 170:6]
  store i16 %559, i16* %555, align 2, !dbg !10218 ; [debug line = 170:6]
  br label %560, !dbg !10219                      ; [debug line = 172:5]

; <label>:560                                     ; preds = %522, %512
  call void (...)* @_ssdm_RegionEnd(i8* getelementptr inbounds ([12 x i8]* @.str19, i32 0, i32 0)) nounwind, !dbg !10220 ; [debug line = 174:6]
  br label %561, !dbg !10220                      ; [debug line = 174:6]

; <label>:561                                     ; preds = %560
  %562 = load i32* %j, align 4, !dbg !10221       ; [#uses=1 type=i32] [debug line = 134:26]
  %563 = add nsw i32 %562, 1, !dbg !10221         ; [#uses=1 type=i32] [debug line = 134:26]
  store i32 %563, i32* %j, align 4, !dbg !10221   ; [debug line = 134:26]
  br label %386, !dbg !10221                      ; [debug line = 134:26]

; <label>:564                                     ; preds = %421, %395, %386
  call void (...)* @_ssdm_RegionEnd(i8* getelementptr inbounds ([12 x i8]* @.str18, i32 0, i32 0)) nounwind, !dbg !10222 ; [debug line = 176:4]
  br label %565, !dbg !10222                      ; [debug line = 176:4]

; <label>:565                                     ; preds = %564
  %566 = load i32* %i, align 4, !dbg !10223       ; [#uses=1 type=i32] [debug line = 132:28]
  %567 = add nsw i32 %566, 1, !dbg !10223         ; [#uses=1 type=i32] [debug line = 132:28]
  store i32 %567, i32* %i, align 4, !dbg !10223   ; [debug line = 132:28]
  br label %382, !dbg !10223                      ; [debug line = 132:28]

; <label>:568                                     ; preds = %382
  call void (...)* @_ssdm_RegionEnd(i8* getelementptr inbounds ([12 x i8]* @.str1223, i32 0, i32 0)) nounwind, !dbg !10224 ; [debug line = 179:3]
  br label %569, !dbg !10224                      ; [debug line = 179:3]

; <label>:569                                     ; preds = %568
  %570 = load i32* %track, align 4, !dbg !10225   ; [#uses=1 type=i32] [debug line = 79:41]
  %571 = add nsw i32 %570, 1, !dbg !10225         ; [#uses=1 type=i32] [debug line = 79:41]
  store i32 %571, i32* %track, align 4, !dbg !10225 ; [debug line = 79:41]
  br label %140, !dbg !10225                      ; [debug line = 79:41]

; <label>:572                                     ; preds = %350, %283, %140
  ret i1 true, !dbg !10226                        ; [debug line = 181:4]
}

; [#uses=10]
declare %"class.std::basic_ostream"* @_ZStlsISt11char_traitsIcEERSt13basic_ostreamIcT_ES5_PKc(%"class.std::basic_ostream"*, i8*)

; [#uses=8]
declare %"class.std::basic_ostream"* @_ZNSolsEt(%"class.std::basic_ostream"*, i16 zeroext)

; [#uses=9]
declare %"class.std::basic_ostream"* @_ZNSolsEPFRSoS_E(%"class.std::basic_ostream"*, %"class.std::basic_ostream"* (%"class.std::basic_ostream"*)*)

; [#uses=9]
declare %"class.std::basic_ostream"* @_ZSt4endlIcSt11char_traitsIcEERSt13basic_ostreamIT_T0_ES6_(%"class.std::basic_ostream"*)

; [#uses=1]
define linkonce_odr %"class.std::basic_ostream"* @_ZlsILi10ELi2ELb0EL9ap_q_mode5EL9ap_o_mode3ELi0EERSoS2_RK13ap_fixed_baseIXT_EXT0_EXT1_EXT2_EXT3_EXT4_EE(%"class.std::basic_ostream"* %os, %struct.ap_fixed_base* %x) nounwind uwtable inlinehint alwaysinline {
  %1 = alloca %"class.std::basic_ostream"*, align 8 ; [#uses=2 type=%"class.std::basic_ostream"**]
  %2 = alloca %struct.ap_fixed_base*, align 8     ; [#uses=1 type=%struct.ap_fixed_base**]
  store %"class.std::basic_ostream"* %os, %"class.std::basic_ostream"** %1, align 8
  call void @llvm.dbg.declare(metadata !{%"class.std::basic_ostream"** %1}, metadata !10227), !dbg !10228 ; [debug line = 2179:28] [debug variable = os]
  store %struct.ap_fixed_base* %x, %struct.ap_fixed_base** %2, align 8
  call void @llvm.dbg.declare(metadata !{%struct.ap_fixed_base** %2}, metadata !10229), !dbg !10230 ; [debug line = 2180:41] [debug variable = x]
  %3 = load %"class.std::basic_ostream"** %1, align 8, !dbg !10231 ; [#uses=1 type=%"class.std::basic_ostream"*] [debug line = 2182:5]
  ret %"class.std::basic_ostream"* %3, !dbg !10231 ; [debug line = 2182:5]
}

; [#uses=1]
define linkonce_odr %"class.std::basic_ostream"* @_ZlsILi16ELi2ELb0EL9ap_q_mode5EL9ap_o_mode3ELi0EERSoS2_RK13ap_fixed_baseIXT_EXT0_EXT1_EXT2_EXT3_EXT4_EE(%"class.std::basic_ostream"* %os, %struct.ap_fixed_base.1* %x) nounwind uwtable inlinehint alwaysinline {
  %1 = alloca %"class.std::basic_ostream"*, align 8 ; [#uses=2 type=%"class.std::basic_ostream"**]
  %2 = alloca %struct.ap_fixed_base.1*, align 8   ; [#uses=1 type=%struct.ap_fixed_base.1**]
  store %"class.std::basic_ostream"* %os, %"class.std::basic_ostream"** %1, align 8
  call void @llvm.dbg.declare(metadata !{%"class.std::basic_ostream"** %1}, metadata !10233), !dbg !10234 ; [debug line = 2179:28] [debug variable = os]
  store %struct.ap_fixed_base.1* %x, %struct.ap_fixed_base.1** %2, align 8
  call void @llvm.dbg.declare(metadata !{%struct.ap_fixed_base.1** %2}, metadata !10235), !dbg !10236 ; [debug line = 2180:41] [debug variable = x]
  %3 = load %"class.std::basic_ostream"** %1, align 8, !dbg !10237 ; [#uses=1 type=%"class.std::basic_ostream"*] [debug line = 2182:5]
  ret %"class.std::basic_ostream"* %3, !dbg !10237 ; [debug line = 2182:5]
}

; [#uses=1]
define linkonce_odr void @_ZmlILi10ELi2ELb0EL9ap_q_mode5EL9ap_o_mode3ELi0EEN13ap_fixed_baseIXT_EXT0_EXT1_ELS0_5ELS1_3ELi0EE5RTypeIXLi16EEXLi16EEXLb0EEE4multEtRKS2_IXT_EXT0_EXT1_EXT2_EXT3_EXT4_EE(%struct.ap_fixed_base.3* noalias sret %agg.result, i16 zeroext %i_op, %struct.ap_fixed_base* %op) nounwind uwtable inlinehint alwaysinline {
  %1 = alloca i16, align 2                        ; [#uses=2 type=i16*]
  %2 = alloca %struct.ap_fixed_base*, align 8     ; [#uses=2 type=%struct.ap_fixed_base**]
  %3 = alloca %struct.ap_fixed_base.21, align 2   ; [#uses=2 type=%struct.ap_fixed_base.21*]
  store i16 %i_op, i16* %1, align 2
  call void @llvm.dbg.declare(metadata !{i16* %1}, metadata !10239), !dbg !10240 ; [debug line = 2278:0] [debug variable = i_op]
  store %struct.ap_fixed_base* %op, %struct.ap_fixed_base** %2, align 8
  call void @llvm.dbg.declare(metadata !{%struct.ap_fixed_base** %2}, metadata !10241), !dbg !10240 ; [debug line = 2278:0] [debug variable = op]
  %4 = load i16* %1, align 2, !dbg !10242         ; [#uses=1 type=i16] [debug line = 2278:0]
  call void @_ZN13ap_fixed_baseILi16ELi16ELb0EL9ap_q_mode5EL9ap_o_mode3ELi0EEC1Et(%struct.ap_fixed_base.21* %3, i16 zeroext %4), !dbg !10242 ; [debug line = 2278:0]
  %5 = load %struct.ap_fixed_base** %2, align 8, !dbg !10242 ; [#uses=1 type=%struct.ap_fixed_base*] [debug line = 2278:0]
  call void @_ZNK13ap_fixed_baseILi16ELi16ELb0EL9ap_q_mode5EL9ap_o_mode3ELi0EEmlILi10ELi2ELb0ELS0_5ELS1_3ELi0EEENS2_5RTypeIXT_EXT0_EXT1_EE4multERKS_IXT_EXT0_EXT1_EXT2_EXT3_EXT4_EE(%struct.ap_fixed_base.3* sret %agg.result, %struct.ap_fixed_base.21* %3, %struct.ap_fixed_base* %5), !dbg !10242 ; [debug line = 2278:0]
  ret void, !dbg !10242                           ; [debug line = 2278:0]
}

; [#uses=1]
define linkonce_odr zeroext i16 @_ZNK13ap_fixed_baseILi26ELi18ELb0EL9ap_q_mode5EL9ap_o_mode3ELi0EEcvtEv(%struct.ap_fixed_base.3* %this) nounwind uwtable inlinehint alwaysinline align 2 {
  %1 = alloca %struct.ap_fixed_base.3*, align 8   ; [#uses=2 type=%struct.ap_fixed_base.3**]
  store %struct.ap_fixed_base.3* %this, %struct.ap_fixed_base.3** %1, align 8
  call void @llvm.dbg.declare(metadata !{%struct.ap_fixed_base.3** %1}, metadata !10244), !dbg !10246 ; [debug line = 1214:43] [debug variable = this]
  %2 = load %struct.ap_fixed_base.3** %1          ; [#uses=1 type=%struct.ap_fixed_base.3*]
  %3 = call i32 @_ZNK13ap_fixed_baseILi26ELi18ELb0EL9ap_q_mode5EL9ap_o_mode3ELi0EE7to_uintEv(%struct.ap_fixed_base.3* %2), !dbg !10247 ; [#uses=1 type=i32] [debug line = 1215:33]
  %4 = trunc i32 %3 to i16, !dbg !10247           ; [#uses=1 type=i16] [debug line = 1215:33]
  ret i16 %4, !dbg !10247                         ; [debug line = 1215:33]
}

; [#uses=1]
define linkonce_odr void @_ZmlILi16ELi2ELb0EL9ap_q_mode5EL9ap_o_mode3ELi0EEN13ap_fixed_baseIXT_EXT0_EXT1_ELS0_5ELS1_3ELi0EE5RTypeIXLi16EEXLi16EEXLb0EEE4multEtRKS2_IXT_EXT0_EXT1_EXT2_EXT3_EXT4_EE(%struct.ap_fixed_base.5* noalias sret %agg.result, i16 zeroext %i_op, %struct.ap_fixed_base.1* %op) nounwind uwtable inlinehint alwaysinline {
  %1 = alloca i16, align 2                        ; [#uses=2 type=i16*]
  %2 = alloca %struct.ap_fixed_base.1*, align 8   ; [#uses=2 type=%struct.ap_fixed_base.1**]
  %3 = alloca %struct.ap_fixed_base.21, align 2   ; [#uses=2 type=%struct.ap_fixed_base.21*]
  store i16 %i_op, i16* %1, align 2
  call void @llvm.dbg.declare(metadata !{i16* %1}, metadata !10249), !dbg !10250 ; [debug line = 2278:0] [debug variable = i_op]
  store %struct.ap_fixed_base.1* %op, %struct.ap_fixed_base.1** %2, align 8
  call void @llvm.dbg.declare(metadata !{%struct.ap_fixed_base.1** %2}, metadata !10251), !dbg !10250 ; [debug line = 2278:0] [debug variable = op]
  %4 = load i16* %1, align 2, !dbg !10252         ; [#uses=1 type=i16] [debug line = 2278:0]
  call void @_ZN13ap_fixed_baseILi16ELi16ELb0EL9ap_q_mode5EL9ap_o_mode3ELi0EEC1Et(%struct.ap_fixed_base.21* %3, i16 zeroext %4), !dbg !10252 ; [debug line = 2278:0]
  %5 = load %struct.ap_fixed_base.1** %2, align 8, !dbg !10252 ; [#uses=1 type=%struct.ap_fixed_base.1*] [debug line = 2278:0]
  call void @_ZNK13ap_fixed_baseILi16ELi16ELb0EL9ap_q_mode5EL9ap_o_mode3ELi0EEmlILi16ELi2ELb0ELS0_5ELS1_3ELi0EEENS2_5RTypeIXT_EXT0_EXT1_EE4multERKS_IXT_EXT0_EXT1_EXT2_EXT3_EXT4_EE(%struct.ap_fixed_base.5* sret %agg.result, %struct.ap_fixed_base.21* %3, %struct.ap_fixed_base.1* %5), !dbg !10252 ; [debug line = 2278:0]
  ret void, !dbg !10252                           ; [debug line = 2278:0]
}

; [#uses=1]
define linkonce_odr zeroext i16 @_ZNK13ap_fixed_baseILi32ELi18ELb0EL9ap_q_mode5EL9ap_o_mode3ELi0EEcvtEv(%struct.ap_fixed_base.5* %this) nounwind uwtable inlinehint alwaysinline align 2 {
  %1 = alloca %struct.ap_fixed_base.5*, align 8   ; [#uses=2 type=%struct.ap_fixed_base.5**]
  store %struct.ap_fixed_base.5* %this, %struct.ap_fixed_base.5** %1, align 8
  call void @llvm.dbg.declare(metadata !{%struct.ap_fixed_base.5** %1}, metadata !10254), !dbg !10256 ; [debug line = 1214:43] [debug variable = this]
  %2 = load %struct.ap_fixed_base.5** %1          ; [#uses=1 type=%struct.ap_fixed_base.5*]
  %3 = call i32 @_ZNK13ap_fixed_baseILi32ELi18ELb0EL9ap_q_mode5EL9ap_o_mode3ELi0EE7to_uintEv(%struct.ap_fixed_base.5* %2), !dbg !10257 ; [#uses=1 type=i32] [debug line = 1215:33]
  %4 = trunc i32 %3 to i16, !dbg !10257           ; [#uses=1 type=i16] [debug line = 1215:33]
  ret i16 %4, !dbg !10257                         ; [debug line = 1215:33]
}

; [#uses=1]
define linkonce_odr void @_ZN8ap_fixedILi10ELi2EL9ap_q_mode5EL9ap_o_mode3ELi0EEC1Ev(%struct.ap_fixed* %this) unnamed_addr nounwind uwtable inlinehint alwaysinline align 2 {
  %1 = alloca %struct.ap_fixed*, align 8          ; [#uses=2 type=%struct.ap_fixed**]
  store %struct.ap_fixed* %this, %struct.ap_fixed** %1, align 8
  call void @llvm.dbg.declare(metadata !{%struct.ap_fixed** %1}, metadata !10259), !dbg !10261 ; [debug line = 290:43] [debug variable = this]
  %2 = load %struct.ap_fixed** %1                 ; [#uses=1 type=%struct.ap_fixed*]
  call void @_ZN8ap_fixedILi10ELi2EL9ap_q_mode5EL9ap_o_mode3ELi0EEC2Ev(%struct.ap_fixed* %2), !dbg !10262 ; [debug line = 290:62]
  ret void, !dbg !10262                           ; [debug line = 290:62]
}

; [#uses=1]
define linkonce_odr %struct.ap_fixed* @_ZN8ap_fixedILi10ELi2EL9ap_q_mode5EL9ap_o_mode3ELi0EEaSERKS2_(%struct.ap_fixed* %this, %struct.ap_fixed* %op) nounwind uwtable inlinehint alwaysinline align 2 {
  %1 = alloca %struct.ap_fixed*, align 8          ; [#uses=2 type=%struct.ap_fixed**]
  %2 = alloca %struct.ap_fixed*, align 8          ; [#uses=2 type=%struct.ap_fixed**]
  store %struct.ap_fixed* %this, %struct.ap_fixed** %1, align 8
  call void @llvm.dbg.declare(metadata !{%struct.ap_fixed** %1}, metadata !10263), !dbg !10264 ; [debug line = 380:53] [debug variable = this]
  store %struct.ap_fixed* %op, %struct.ap_fixed** %2, align 8
  call void @llvm.dbg.declare(metadata !{%struct.ap_fixed** %2}, metadata !10265), !dbg !10266 ; [debug line = 381:49] [debug variable = op]
  %3 = load %struct.ap_fixed** %1                 ; [#uses=2 type=%struct.ap_fixed*]
  %4 = load %struct.ap_fixed** %2, align 8, !dbg !10267 ; [#uses=1 type=%struct.ap_fixed*] [debug line = 382:9]
  %5 = bitcast %struct.ap_fixed* %4 to %struct.ssdm_int.8*, !dbg !10267 ; [#uses=1 type=%struct.ssdm_int.8*] [debug line = 382:9]
  %6 = getelementptr inbounds %struct.ssdm_int.8* %5, i32 0, i32 0, !dbg !10267 ; [#uses=1 type=i10*] [debug line = 382:9]
  %7 = load i10* %6, align 2, !dbg !10267         ; [#uses=1 type=i10] [debug line = 382:9]
  %8 = bitcast %struct.ap_fixed* %3 to %struct.ap_fixed_base.7*, !dbg !10267 ; [#uses=1 type=%struct.ap_fixed_base.7*] [debug line = 382:9]
  %9 = bitcast %struct.ap_fixed_base.7* %8 to %struct.ssdm_int.8*, !dbg !10267 ; [#uses=1 type=%struct.ssdm_int.8*] [debug line = 382:9]
  %10 = getelementptr inbounds %struct.ssdm_int.8* %9, i32 0, i32 0, !dbg !10267 ; [#uses=1 type=i10*] [debug line = 382:9]
  store i10 %7, i10* %10, align 2, !dbg !10267    ; [debug line = 382:9]
  ret %struct.ap_fixed* %3, !dbg !10269           ; [debug line = 383:9]
}

; [#uses=1]
define linkonce_odr void @_ZN8ap_fixedILi10ELi2EL9ap_q_mode5EL9ap_o_mode3ELi0EEC1Ei(%struct.ap_fixed* %this, i32 %v) unnamed_addr nounwind uwtable inlinehint alwaysinline align 2 {
  %1 = alloca %struct.ap_fixed*, align 8          ; [#uses=2 type=%struct.ap_fixed**]
  %2 = alloca i32, align 4                        ; [#uses=2 type=i32*]
  store %struct.ap_fixed* %this, %struct.ap_fixed** %1, align 8
  call void @llvm.dbg.declare(metadata !{%struct.ap_fixed** %1}, metadata !10270), !dbg !10271 ; [debug line = 367:43] [debug variable = this]
  store i32 %v, i32* %2, align 4
  call void @llvm.dbg.declare(metadata !{i32* %2}, metadata !10272), !dbg !10273 ; [debug line = 367:56] [debug variable = v]
  %3 = load %struct.ap_fixed** %1                 ; [#uses=1 type=%struct.ap_fixed*]
  %4 = load i32* %2, align 4, !dbg !10274         ; [#uses=1 type=i32] [debug line = 367:68]
  call void @_ZN8ap_fixedILi10ELi2EL9ap_q_mode5EL9ap_o_mode3ELi0EEC2Ei(%struct.ap_fixed* %3, i32 %4), !dbg !10274 ; [debug line = 367:68]
  ret void, !dbg !10274                           ; [debug line = 367:68]
}

; [#uses=1]
define linkonce_odr void @_ZN9ap_ufixedILi10ELi2EL9ap_q_mode5EL9ap_o_mode3ELi0EEC1Ei(%struct.ap_ufixed* %this, i32 %v) unnamed_addr nounwind uwtable inlinehint alwaysinline align 2 {
  %1 = alloca %struct.ap_ufixed*, align 8         ; [#uses=2 type=%struct.ap_ufixed**]
  %2 = alloca i32, align 4                        ; [#uses=2 type=i32*]
  store %struct.ap_ufixed* %this, %struct.ap_ufixed** %1, align 8
  call void @llvm.dbg.declare(metadata !{%struct.ap_ufixed** %1}, metadata !10275), !dbg !10276 ; [debug line = 489:43] [debug variable = this]
  store i32 %v, i32* %2, align 4
  call void @llvm.dbg.declare(metadata !{i32* %2}, metadata !10277), !dbg !10278 ; [debug line = 489:57] [debug variable = v]
  %3 = load %struct.ap_ufixed** %1                ; [#uses=1 type=%struct.ap_ufixed*]
  %4 = load i32* %2, align 4, !dbg !10279         ; [#uses=1 type=i32] [debug line = 489:69]
  call void @_ZN9ap_ufixedILi10ELi2EL9ap_q_mode5EL9ap_o_mode3ELi0EEC2Ei(%struct.ap_ufixed* %3, i32 %4), !dbg !10279 ; [debug line = 489:69]
  ret void, !dbg !10279                           ; [debug line = 489:69]
}

; [#uses=1]
define linkonce_odr zeroext i1 @_ZNK13ap_fixed_baseILi10ELi2ELb1EL9ap_q_mode5EL9ap_o_mode3ELi0EEltILi10ELi2ELb0ELS0_5ELS1_3ELi0EEEbRKS_IXT_EXT0_EXT1_EXT2_EXT3_EXT4_EE(%struct.ap_fixed_base.7* %this, %struct.ap_fixed_base* %op2) nounwind uwtable inlinehint alwaysinline align 2 {
  %1 = alloca %struct.ap_fixed_base.7*, align 8   ; [#uses=2 type=%struct.ap_fixed_base.7**]
  %2 = alloca %struct.ap_fixed_base*, align 8     ; [#uses=2 type=%struct.ap_fixed_base**]
  %_AP_F = alloca i32, align 4                    ; [#uses=1 type=i32*]
  %F2 = alloca i32, align 4                       ; [#uses=1 type=i32*]
  store %struct.ap_fixed_base.7* %this, %struct.ap_fixed_base.7** %1, align 8
  call void @llvm.dbg.declare(metadata !{%struct.ap_fixed_base.7** %1}, metadata !10280), !dbg !10282 ; [debug line = 1886:142] [debug variable = this]
  store %struct.ap_fixed_base* %op2, %struct.ap_fixed_base** %2, align 8
  call void @llvm.dbg.declare(metadata !{%struct.ap_fixed_base** %2}, metadata !10283), !dbg !10284 ; [debug line = 1886:219] [debug variable = op2]
  %3 = load %struct.ap_fixed_base.7** %1          ; [#uses=1 type=%struct.ap_fixed_base.7*]
  call void @llvm.dbg.declare(metadata !{i32* %_AP_F}, metadata !10285), !dbg !10287 ; [debug line = 1886:242] [debug variable = _AP_F]
  store i32 8, i32* %_AP_F, align 4, !dbg !10288  ; [debug line = 1886:0]
  call void @llvm.dbg.declare(metadata !{i32* %F2}, metadata !10289), !dbg !10288 ; [debug line = 1886:0] [debug variable = F2]
  store i32 8, i32* %F2, align 4, !dbg !10288     ; [debug line = 1886:0]
  %4 = bitcast %struct.ap_fixed_base.7* %3 to %struct.ssdm_int.8*, !dbg !10288 ; [#uses=1 type=%struct.ssdm_int.8*] [debug line = 1886:0]
  %5 = getelementptr inbounds %struct.ssdm_int.8* %4, i32 0, i32 0, !dbg !10288 ; [#uses=1 type=i10*] [debug line = 1886:0]
  %6 = load i10* %5, align 2, !dbg !10288         ; [#uses=1 type=i10] [debug line = 1886:0]
  %7 = sext i10 %6 to i32, !dbg !10288            ; [#uses=1 type=i32] [debug line = 1886:0]
  %8 = load %struct.ap_fixed_base** %2, align 8, !dbg !10288 ; [#uses=1 type=%struct.ap_fixed_base*] [debug line = 1886:0]
  %9 = bitcast %struct.ap_fixed_base* %8 to %struct.ssdm_int*, !dbg !10288 ; [#uses=1 type=%struct.ssdm_int*] [debug line = 1886:0]
  %10 = getelementptr inbounds %struct.ssdm_int* %9, i32 0, i32 0, !dbg !10288 ; [#uses=1 type=i10*] [debug line = 1886:0]
  %11 = load i10* %10, align 2, !dbg !10288       ; [#uses=1 type=i10] [debug line = 1886:0]
  %12 = zext i10 %11 to i32, !dbg !10288          ; [#uses=1 type=i32] [debug line = 1886:0]
  %13 = icmp slt i32 %7, %12, !dbg !10288         ; [#uses=1 type=i1] [debug line = 1886:0]
  ret i1 %13, !dbg !10288                         ; [debug line = 1886:0]
}

; [#uses=1]
define linkonce_odr %struct.ap_ufixed* @_ZN9ap_ufixedILi10ELi2EL9ap_q_mode5EL9ap_o_mode3ELi0EEaSERKS2_(%struct.ap_ufixed* %this, %struct.ap_ufixed* %op) nounwind uwtable inlinehint alwaysinline align 2 {
  %1 = alloca %struct.ap_ufixed*, align 8         ; [#uses=2 type=%struct.ap_ufixed**]
  %2 = alloca %struct.ap_ufixed*, align 8         ; [#uses=2 type=%struct.ap_ufixed**]
  store %struct.ap_ufixed* %this, %struct.ap_ufixed** %1, align 8
  call void @llvm.dbg.declare(metadata !{%struct.ap_ufixed** %1}, metadata !10290), !dbg !10291 ; [debug line = 502:54] [debug variable = this]
  store %struct.ap_ufixed* %op, %struct.ap_ufixed** %2, align 8
  call void @llvm.dbg.declare(metadata !{%struct.ap_ufixed** %2}, metadata !10292), !dbg !10293 ; [debug line = 503:45] [debug variable = op]
  %3 = load %struct.ap_ufixed** %1                ; [#uses=2 type=%struct.ap_ufixed*]
  %4 = load %struct.ap_ufixed** %2, align 8, !dbg !10294 ; [#uses=1 type=%struct.ap_ufixed*] [debug line = 504:9]
  %5 = bitcast %struct.ap_ufixed* %4 to %struct.ssdm_int*, !dbg !10294 ; [#uses=1 type=%struct.ssdm_int*] [debug line = 504:9]
  %6 = getelementptr inbounds %struct.ssdm_int* %5, i32 0, i32 0, !dbg !10294 ; [#uses=1 type=i10*] [debug line = 504:9]
  %7 = load i10* %6, align 2, !dbg !10294         ; [#uses=1 type=i10] [debug line = 504:9]
  %8 = bitcast %struct.ap_ufixed* %3 to %struct.ap_fixed_base*, !dbg !10294 ; [#uses=1 type=%struct.ap_fixed_base*] [debug line = 504:9]
  %9 = bitcast %struct.ap_fixed_base* %8 to %struct.ssdm_int*, !dbg !10294 ; [#uses=1 type=%struct.ssdm_int*] [debug line = 504:9]
  %10 = getelementptr inbounds %struct.ssdm_int* %9, i32 0, i32 0, !dbg !10294 ; [#uses=1 type=i10*] [debug line = 504:9]
  store i10 %7, i10* %10, align 2, !dbg !10294    ; [debug line = 504:9]
  ret %struct.ap_ufixed* %3, !dbg !10296          ; [debug line = 505:9]
}

; [#uses=1]
define linkonce_odr void @_ZN9ap_ufixedILi10ELi2EL9ap_q_mode5EL9ap_o_mode3ELi0EEC1ILi10ELi2ELS0_5ELS1_3ELi0EEERK8ap_fixedIXT_EXT0_EXT1_EXT2_EXT3_EE(%struct.ap_ufixed* %this, %struct.ap_fixed* %op) unnamed_addr nounwind uwtable inlinehint alwaysinline align 2 {
  %1 = alloca %struct.ap_ufixed*, align 8         ; [#uses=2 type=%struct.ap_ufixed**]
  %2 = alloca %struct.ap_fixed*, align 8          ; [#uses=2 type=%struct.ap_fixed**]
  store %struct.ap_ufixed* %this, %struct.ap_ufixed** %1, align 8
  call void @llvm.dbg.declare(metadata !{%struct.ap_ufixed** %1}, metadata !10297), !dbg !10298 ; [debug line = 414:43] [debug variable = this]
  store %struct.ap_fixed* %op, %struct.ap_fixed** %2, align 8
  call void @llvm.dbg.declare(metadata !{%struct.ap_fixed** %2}, metadata !10299), !dbg !10300 ; [debug line = 415:32] [debug variable = op]
  %3 = load %struct.ap_ufixed** %1                ; [#uses=1 type=%struct.ap_ufixed*]
  %4 = load %struct.ap_fixed** %2, !dbg !10301    ; [#uses=1 type=%struct.ap_fixed*] [debug line = 416:58]
  call void @_ZN9ap_ufixedILi10ELi2EL9ap_q_mode5EL9ap_o_mode3ELi0EEC2ILi10ELi2ELS0_5ELS1_3ELi0EEERK8ap_fixedIXT_EXT0_EXT1_EXT2_EXT3_EE(%struct.ap_ufixed* %3, %struct.ap_fixed* %4), !dbg !10301 ; [debug line = 416:58]
  ret void, !dbg !10301                           ; [debug line = 416:58]
}

; [#uses=1]
define internal void @__cxx_global_var_init20() nounwind section ".text.startup" {
  call void @_ZN49ssdm_global_array_ClusterTrackLinkerpp0ccaplineccC1Ev(%class.ssdm_global_array_ClusterTrackLinkerpp0ccaplinecc* @_ZL21ssdm_global_array_ins25)
  ret void
}

; [#uses=1]
define linkonce_odr void @_ZN49ssdm_global_array_ClusterTrackLinkerpp0ccaplineccC1Ev(%class.ssdm_global_array_ClusterTrackLinkerpp0ccaplinecc* %this) unnamed_addr nounwind uwtable inlinehint alwaysinline align 2 {
  %1 = alloca %class.ssdm_global_array_ClusterTrackLinkerpp0ccaplinecc*, align 8 ; [#uses=2 type=%class.ssdm_global_array_ClusterTrackLinkerpp0ccaplinecc**]
  store %class.ssdm_global_array_ClusterTrackLinkerpp0ccaplinecc* %this, %class.ssdm_global_array_ClusterTrackLinkerpp0ccaplinecc** %1, align 8
  call void @llvm.dbg.declare(metadata !{%class.ssdm_global_array_ClusterTrackLinkerpp0ccaplinecc** %1}, metadata !10302), !dbg !10304 ; [debug line = 186:42] [debug variable = this]
  %2 = load %class.ssdm_global_array_ClusterTrackLinkerpp0ccaplinecc** %1 ; [#uses=1 type=%class.ssdm_global_array_ClusterTrackLinkerpp0ccaplinecc*]
  call void @_ZN49ssdm_global_array_ClusterTrackLinkerpp0ccaplineccC2Ev(%class.ssdm_global_array_ClusterTrackLinkerpp0ccaplinecc* %2), !dbg !10305 ; [debug line = 202:3]
  ret void, !dbg !10305                           ; [debug line = 202:3]
}

; [#uses=1]
define linkonce_odr void @_ZN9ap_ufixedILi10ELi2EL9ap_q_mode5EL9ap_o_mode3ELi0EEC2ILi10ELi2ELS0_5ELS1_3ELi0EEERK8ap_fixedIXT_EXT0_EXT1_EXT2_EXT3_EE(%struct.ap_ufixed* %this, %struct.ap_fixed* %op) unnamed_addr nounwind uwtable inlinehint alwaysinline align 2 {
  %1 = alloca %struct.ap_ufixed*, align 8         ; [#uses=2 type=%struct.ap_ufixed**]
  %2 = alloca %struct.ap_fixed*, align 8          ; [#uses=2 type=%struct.ap_fixed**]
  %3 = alloca %struct.ap_fixed_base.7, align 2    ; [#uses=3 type=%struct.ap_fixed_base.7*]
  store %struct.ap_ufixed* %this, %struct.ap_ufixed** %1, align 8
  call void @llvm.dbg.declare(metadata !{%struct.ap_ufixed** %1}, metadata !10306), !dbg !10307 ; [debug line = 414:43] [debug variable = this]
  store %struct.ap_fixed* %op, %struct.ap_fixed** %2, align 8
  call void @llvm.dbg.declare(metadata !{%struct.ap_fixed** %2}, metadata !10308), !dbg !10309 ; [debug line = 415:32] [debug variable = op]
  %4 = load %struct.ap_ufixed** %1                ; [#uses=1 type=%struct.ap_ufixed*]
  %5 = bitcast %struct.ap_ufixed* %4 to %struct.ap_fixed_base*, !dbg !10310 ; [#uses=1 type=%struct.ap_fixed_base*] [debug line = 416:57]
  %6 = load %struct.ap_fixed** %2, align 8, !dbg !10310 ; [#uses=1 type=%struct.ap_fixed*] [debug line = 416:57]
  %7 = bitcast %struct.ap_fixed* %6 to %struct.ap_fixed_base.7*, !dbg !10310 ; [#uses=2 type=%struct.ap_fixed_base.7*] [debug line = 416:57]
  %8 = bitcast %struct.ap_fixed_base.7* %3 to i8*, !dbg !10310 ; [#uses=0 type=i8*] [debug line = 416:57]
  %9 = bitcast %struct.ap_fixed_base.7* %7 to i8*, !dbg !10310 ; [#uses=0 type=i8*] [debug line = 416:57]
  %10 = getelementptr inbounds %struct.ap_fixed_base.7* %3, i32 0, i32 0, !dbg !10310 ; [#uses=1 type=%struct.ssdm_int.8*] [debug line = 416:57]
  %11 = getelementptr inbounds %struct.ap_fixed_base.7* %7, i32 0, i32 0, !dbg !10310 ; [#uses=1 type=%struct.ssdm_int.8*] [debug line = 416:57]
  %12 = getelementptr inbounds %struct.ssdm_int.8* %10, i32 0, i32 0, !dbg !10310 ; [#uses=1 type=i10*] [debug line = 416:57]
  %13 = getelementptr inbounds %struct.ssdm_int.8* %11, i32 0, i32 0, !dbg !10310 ; [#uses=1 type=i10*] [debug line = 416:57]
  %14 = load i10* %13, !dbg !10310                ; [#uses=1 type=i10] [debug line = 416:57]
  store i10 %14, i10* %12, !dbg !10310            ; [debug line = 416:57]
  call void @_ZN13ap_fixed_baseILi10ELi2ELb0EL9ap_q_mode5EL9ap_o_mode3ELi0EEC2ILi10ELi2ELb1ELS0_5ELS1_3ELi0EEERKS_IXT_EXT0_EXT1_EXT2_EXT3_EXT4_EE(%struct.ap_fixed_base* %5, %struct.ap_fixed_base.7* %3), !dbg !10310 ; [debug line = 416:57]
  ret void, !dbg !10311                           ; [debug line = 416:58]
}

; [#uses=1]
define linkonce_odr void @_ZN13ap_fixed_baseILi10ELi2ELb0EL9ap_q_mode5EL9ap_o_mode3ELi0EEC2ILi10ELi2ELb1ELS0_5ELS1_3ELi0EEERKS_IXT_EXT0_EXT1_EXT2_EXT3_EXT4_EE(%struct.ap_fixed_base* %this, %struct.ap_fixed_base.7* %op) unnamed_addr nounwind uwtable align 2 {
  %1 = alloca %struct.ap_fixed_base*, align 8     ; [#uses=2 type=%struct.ap_fixed_base**]
  %2 = alloca %struct.ap_fixed_base.7*, align 8   ; [#uses=3 type=%struct.ap_fixed_base.7**]
  %carry = alloca i1, align 1                     ; [#uses=1 type=i1*]
  %sh_amt = alloca i32, align 4                   ; [#uses=1 type=i32*]
  %signbit = alloca i1, align 1                   ; [#uses=2 type=i1*]
  %__Result__ = alloca i10, align 2               ; [#uses=4 type=i10*]
  %__Val2__ = alloca i10, align 2                 ; [#uses=3 type=i10*]
  %isneg = alloca i1, align 1                     ; [#uses=1 type=i1*]
  store %struct.ap_fixed_base* %this, %struct.ap_fixed_base** %1, align 8
  call void @llvm.dbg.declare(metadata !{%struct.ap_fixed_base** %1}, metadata !10313), !dbg !10315 ; [debug line = 661:31] [debug variable = this]
  store %struct.ap_fixed_base.7* %op, %struct.ap_fixed_base.7** %2, align 8
  call void @llvm.dbg.declare(metadata !{%struct.ap_fixed_base.7** %2}, metadata !10316), !dbg !10317 ; [debug line = 661:111] [debug variable = op]
  %3 = load %struct.ap_fixed_base** %1            ; [#uses=2 type=%struct.ap_fixed_base*]
  %4 = bitcast %struct.ap_fixed_base* %3 to %struct.ssdm_int*, !dbg !10318 ; [#uses=1 type=%struct.ssdm_int*] [debug line = 661:115]
  call void @_ZN8ssdm_intILi10ELb0EEC2Ev(%struct.ssdm_int* %4), !dbg !10318 ; [debug line = 661:115]
  call void (...)* @_ssdm_InlineSelf(i32 0, i8* getelementptr inbounds ([1 x i8]* @.str13, i32 0, i32 0)) nounwind, !dbg !10319 ; [debug line = 663:1]
  call void @llvm.dbg.declare(metadata !{i1* %carry}, metadata !10321), !dbg !10322 ; [debug line = 667:14] [debug variable = carry]
  store i1 false, i1* %carry, align 1, !dbg !10323 ; [debug line = 667:27]
  call void @llvm.dbg.declare(metadata !{i32* %sh_amt}, metadata !10324), !dbg !10325 ; [debug line = 672:18] [debug variable = sh_amt]
  store i32 0, i32* %sh_amt, align 4, !dbg !10326 ; [debug line = 672:65]
  call void @llvm.dbg.declare(metadata !{i1* %signbit}, metadata !10327), !dbg !10328 ; [debug line = 673:14] [debug variable = signbit]
  call void @llvm.dbg.declare(metadata !{i10* %__Result__}, metadata !10329), !dbg !10331 ; [debug line = 673:116] [debug variable = __Result__]
  store i10 0, i10* %__Result__, align 2, !dbg !10332 ; [debug line = 673:130]
  call void @llvm.dbg.declare(metadata !{i10* %__Val2__}, metadata !10333), !dbg !10334 ; [debug line = 673:221] [debug variable = __Val2__]
  %5 = load %struct.ap_fixed_base.7** %2, align 8, !dbg !10335 ; [#uses=1 type=%struct.ap_fixed_base.7*] [debug line = 673:0]
  %6 = bitcast %struct.ap_fixed_base.7* %5 to %struct.ssdm_int.8*, !dbg !10335 ; [#uses=1 type=%struct.ssdm_int.8*] [debug line = 673:0]
  %7 = getelementptr inbounds %struct.ssdm_int.8* %6, i32 0, i32 0, !dbg !10335 ; [#uses=1 type=i10*] [debug line = 673:0]
  %8 = load i10* %7, align 2, !dbg !10335         ; [#uses=1 type=i10] [debug line = 673:0]
  store i10 %8, i10* %__Val2__, align 2, !dbg !10335 ; [debug line = 673:0]
  %9 = bitcast i10* %__Result__ to i8*, !dbg !10335 ; [#uses=0 type=i8*] [debug line = 673:0]
  %10 = bitcast i10* %__Val2__ to i8*, !dbg !10335 ; [#uses=0 type=i8*] [debug line = 673:0]
  %11 = load i10* %__Val2__, !dbg !10335          ; [#uses=1 type=i10] [debug line = 673:0]
  %12 = call i10 @llvm.part.select.i10(i10 %11, i32 9, i32 9), !dbg !10335 ; [#uses=1 type=i10] [debug line = 673:0]
  store i10 %12, i10* %__Result__, !dbg !10335    ; [debug line = 673:0]
  %13 = load i10* %__Result__, align 2, !dbg !10335 ; [#uses=1 type=i10] [debug line = 673:0]
  %14 = sext i10 %13 to i32, !dbg !10335          ; [#uses=1 type=i32] [debug line = 673:0]
  %15 = and i32 %14, 1, !dbg !10335               ; [#uses=1 type=i32] [debug line = 673:0]
  %16 = icmp ne i32 %15, 0, !dbg !10335           ; [#uses=1 type=i1] [debug line = 673:0]
  store i1 %16, i1* %signbit, align 1, !dbg !10335 ; [debug line = 673:0]
  call void @llvm.dbg.declare(metadata !{i1* %isneg}, metadata !10336), !dbg !10337 ; [debug line = 675:14] [debug variable = isneg]
  %17 = load i1* %signbit, align 1, !dbg !10338   ; [#uses=1 type=i1] [debug line = 675:39]
  br i1 %17, label %18, label %19, !dbg !10338    ; [debug line = 675:39]

; <label>:18                                      ; preds = %0
  br label %19

; <label>:19                                      ; preds = %18, %0
  %20 = phi i1 [ false, %0 ], [ true, %18 ]       ; [#uses=1 type=i1]
  store i1 %20, i1* %isneg, align 1
  %21 = load %struct.ap_fixed_base.7** %2, align 8, !dbg !10339 ; [#uses=1 type=%struct.ap_fixed_base.7*] [debug line = 677:13]
  %22 = bitcast %struct.ap_fixed_base.7* %21 to %struct.ssdm_int.8*, !dbg !10339 ; [#uses=1 type=%struct.ssdm_int.8*] [debug line = 677:13]
  %23 = getelementptr inbounds %struct.ssdm_int.8* %22, i32 0, i32 0, !dbg !10339 ; [#uses=1 type=i10*] [debug line = 677:13]
  %24 = load i10* %23, align 2, !dbg !10339       ; [#uses=1 type=i10] [debug line = 677:13]
  %25 = bitcast %struct.ap_fixed_base* %3 to %struct.ssdm_int*, !dbg !10339 ; [#uses=1 type=%struct.ssdm_int*] [debug line = 677:13]
  %26 = getelementptr inbounds %struct.ssdm_int* %25, i32 0, i32 0, !dbg !10339 ; [#uses=1 type=i10*] [debug line = 677:13]
  store i10 %24, i10* %26, align 2, !dbg !10339   ; [debug line = 677:13]
  ret void, !dbg !10340                           ; [debug line = 771:5]
}

; [#uses=4]
define linkonce_odr void @_ZN8ssdm_intILi10ELb0EEC2Ev(%struct.ssdm_int* %this) unnamed_addr nounwind uwtable inlinehint alwaysinline align 2 {
  %1 = alloca %struct.ssdm_int*, align 8          ; [#uses=2 type=%struct.ssdm_int**]
  store %struct.ssdm_int* %this, %struct.ssdm_int** %1, align 8
  call void @llvm.dbg.declare(metadata !{%struct.ssdm_int** %1}, metadata !10341), !dbg !10343 ; [debug line = 12:0] [debug variable = this]
  %2 = load %struct.ssdm_int** %1                 ; [#uses=0 type=%struct.ssdm_int*]
  ret void, !dbg !10344                           ; [debug line = 12:0]
}

; [#uses=5]
declare void @_ssdm_InlineSelf(...) nounwind

; [#uses=1]
declare i10 @llvm.part.select.i10(i10, i32, i32) nounwind readnone

; [#uses=1]
define linkonce_odr void @_ZN9ap_ufixedILi10ELi2EL9ap_q_mode5EL9ap_o_mode3ELi0EEC2Ei(%struct.ap_ufixed* %this, i32 %v) unnamed_addr nounwind uwtable inlinehint alwaysinline align 2 {
  %1 = alloca %struct.ap_ufixed*, align 8         ; [#uses=2 type=%struct.ap_ufixed**]
  %2 = alloca i32, align 4                        ; [#uses=2 type=i32*]
  store %struct.ap_ufixed* %this, %struct.ap_ufixed** %1, align 8
  call void @llvm.dbg.declare(metadata !{%struct.ap_ufixed** %1}, metadata !10346), !dbg !10347 ; [debug line = 489:43] [debug variable = this]
  store i32 %v, i32* %2, align 4
  call void @llvm.dbg.declare(metadata !{i32* %2}, metadata !10348), !dbg !10349 ; [debug line = 489:57] [debug variable = v]
  %3 = load %struct.ap_ufixed** %1                ; [#uses=1 type=%struct.ap_ufixed*]
  %4 = bitcast %struct.ap_ufixed* %3 to %struct.ap_fixed_base*, !dbg !10350 ; [#uses=1 type=%struct.ap_fixed_base*] [debug line = 489:68]
  %5 = load i32* %2, align 4, !dbg !10350         ; [#uses=1 type=i32] [debug line = 489:68]
  call void @_ZN13ap_fixed_baseILi10ELi2ELb0EL9ap_q_mode5EL9ap_o_mode3ELi0EEC2Ei(%struct.ap_fixed_base* %4, i32 %5), !dbg !10350 ; [debug line = 489:68]
  ret void, !dbg !10351                           ; [debug line = 489:69]
}

; [#uses=1]
define linkonce_odr void @_ZN13ap_fixed_baseILi10ELi2ELb0EL9ap_q_mode5EL9ap_o_mode3ELi0EEC2Ei(%struct.ap_fixed_base* %this, i32 %b) unnamed_addr nounwind uwtable inlinehint alwaysinline align 2 {
  %1 = alloca %struct.ap_fixed_base*, align 8     ; [#uses=2 type=%struct.ap_fixed_base**]
  %2 = alloca i32, align 4                        ; [#uses=2 type=i32*]
  %3 = alloca %struct.ap_fixed_base, align 2      ; [#uses=2 type=%struct.ap_fixed_base*]
  %4 = alloca %struct.ap_fixed_base.18, align 4   ; [#uses=2 type=%struct.ap_fixed_base.18*]
  store %struct.ap_fixed_base* %this, %struct.ap_fixed_base** %1, align 8
  call void @llvm.dbg.declare(metadata !{%struct.ap_fixed_base** %1}, metadata !10353), !dbg !10354 ; [debug line = 793:43] [debug variable = this]
  store i32 %b, i32* %2, align 4
  call void @llvm.dbg.declare(metadata !{i32* %2}, metadata !10355), !dbg !10356 ; [debug line = 793:69] [debug variable = b]
  %5 = load %struct.ap_fixed_base** %1            ; [#uses=2 type=%struct.ap_fixed_base*]
  %6 = bitcast %struct.ap_fixed_base* %5 to %struct.ssdm_int*, !dbg !10357 ; [#uses=1 type=%struct.ssdm_int*] [debug line = 793:73]
  call void @_ZN8ssdm_intILi10ELb0EEC2Ev(%struct.ssdm_int* %6), !dbg !10357 ; [debug line = 793:73]
  %7 = load i32* %2, align 4, !dbg !10358         ; [#uses=1 type=i32] [debug line = 793:75]
  call void @_ZN13ap_fixed_baseILi32ELi32ELb1EL9ap_q_mode5EL9ap_o_mode3ELi0EEC1Ei(%struct.ap_fixed_base.18* %4, i32 %7), !dbg !10358 ; [debug line = 793:75]
  call void @_ZN13ap_fixed_baseILi10ELi2ELb0EL9ap_q_mode5EL9ap_o_mode3ELi0EEC1ILi32ELi32ELb1ELS0_5ELS1_3ELi0EEERKS_IXT_EXT0_EXT1_EXT2_EXT3_EXT4_EE(%struct.ap_fixed_base* %3, %struct.ap_fixed_base.18* %4), !dbg !10358 ; [debug line = 793:75]
  %8 = call %struct.ap_fixed_base* @_ZN13ap_fixed_baseILi10ELi2ELb0EL9ap_q_mode5EL9ap_o_mode3ELi0EEaSERKS2_(%struct.ap_fixed_base* %5, %struct.ap_fixed_base* %3), !dbg !10358 ; [#uses=0 type=%struct.ap_fixed_base*] [debug line = 793:75]
  ret void, !dbg !10360                           ; [debug line = 793:116]
}

; [#uses=1]
define linkonce_odr %struct.ap_fixed_base* @_ZN13ap_fixed_baseILi10ELi2ELb0EL9ap_q_mode5EL9ap_o_mode3ELi0EEaSERKS2_(%struct.ap_fixed_base* %this, %struct.ap_fixed_base* %op) nounwind uwtable inlinehint alwaysinline align 2 {
  %1 = alloca %struct.ap_fixed_base*, align 8     ; [#uses=2 type=%struct.ap_fixed_base**]
  %2 = alloca %struct.ap_fixed_base*, align 8     ; [#uses=2 type=%struct.ap_fixed_base**]
  store %struct.ap_fixed_base* %this, %struct.ap_fixed_base** %1, align 8
  call void @llvm.dbg.declare(metadata !{%struct.ap_fixed_base** %1}, metadata !10361), !dbg !10362 ; [debug line = 995:58] [debug variable = this]
  store %struct.ap_fixed_base* %op, %struct.ap_fixed_base** %2, align 8
  call void @llvm.dbg.declare(metadata !{%struct.ap_fixed_base** %2}, metadata !10363), !dbg !10364 ; [debug line = 996:63] [debug variable = op]
  %3 = load %struct.ap_fixed_base** %1            ; [#uses=2 type=%struct.ap_fixed_base*]
  %4 = load %struct.ap_fixed_base** %2, align 8, !dbg !10365 ; [#uses=1 type=%struct.ap_fixed_base*] [debug line = 998:9]
  %5 = bitcast %struct.ap_fixed_base* %4 to %struct.ssdm_int*, !dbg !10365 ; [#uses=1 type=%struct.ssdm_int*] [debug line = 998:9]
  %6 = getelementptr inbounds %struct.ssdm_int* %5, i32 0, i32 0, !dbg !10365 ; [#uses=1 type=i10*] [debug line = 998:9]
  %7 = load i10* %6, align 2, !dbg !10365         ; [#uses=1 type=i10] [debug line = 998:9]
  %8 = bitcast %struct.ap_fixed_base* %3 to %struct.ssdm_int*, !dbg !10365 ; [#uses=1 type=%struct.ssdm_int*] [debug line = 998:9]
  %9 = getelementptr inbounds %struct.ssdm_int* %8, i32 0, i32 0, !dbg !10365 ; [#uses=1 type=i10*] [debug line = 998:9]
  store i10 %7, i10* %9, align 2, !dbg !10365     ; [debug line = 998:9]
  ret %struct.ap_fixed_base* %3, !dbg !10367      ; [debug line = 999:9]
}

; [#uses=1]
define linkonce_odr void @_ZN13ap_fixed_baseILi10ELi2ELb0EL9ap_q_mode5EL9ap_o_mode3ELi0EEC1ILi32ELi32ELb1ELS0_5ELS1_3ELi0EEERKS_IXT_EXT0_EXT1_EXT2_EXT3_EXT4_EE(%struct.ap_fixed_base* %this, %struct.ap_fixed_base.18* %op) unnamed_addr nounwind uwtable align 2 {
  %1 = alloca %struct.ap_fixed_base*, align 8     ; [#uses=2 type=%struct.ap_fixed_base**]
  %2 = alloca %struct.ap_fixed_base.18*, align 8  ; [#uses=2 type=%struct.ap_fixed_base.18**]
  store %struct.ap_fixed_base* %this, %struct.ap_fixed_base** %1, align 8
  call void @llvm.dbg.declare(metadata !{%struct.ap_fixed_base** %1}, metadata !10368), !dbg !10369 ; [debug line = 661:31] [debug variable = this]
  store %struct.ap_fixed_base.18* %op, %struct.ap_fixed_base.18** %2, align 8
  call void @llvm.dbg.declare(metadata !{%struct.ap_fixed_base.18** %2}, metadata !10370), !dbg !10371 ; [debug line = 661:111] [debug variable = op]
  %3 = load %struct.ap_fixed_base** %1            ; [#uses=1 type=%struct.ap_fixed_base*]
  %4 = load %struct.ap_fixed_base.18** %2, !dbg !10372 ; [#uses=1 type=%struct.ap_fixed_base.18*] [debug line = 771:5]
  call void @_ZN13ap_fixed_baseILi10ELi2ELb0EL9ap_q_mode5EL9ap_o_mode3ELi0EEC2ILi32ELi32ELb1ELS0_5ELS1_3ELi0EEERKS_IXT_EXT0_EXT1_EXT2_EXT3_EXT4_EE(%struct.ap_fixed_base* %3, %struct.ap_fixed_base.18* %4), !dbg !10372 ; [debug line = 771:5]
  ret void, !dbg !10372                           ; [debug line = 771:5]
}

; [#uses=2]
define linkonce_odr void @_ZN13ap_fixed_baseILi32ELi32ELb1EL9ap_q_mode5EL9ap_o_mode3ELi0EEC1Ei(%struct.ap_fixed_base.18* %this, i32 %i_op) unnamed_addr nounwind uwtable inlinehint alwaysinline align 2 {
  %1 = alloca %struct.ap_fixed_base.18*, align 8  ; [#uses=2 type=%struct.ap_fixed_base.18**]
  %2 = alloca i32, align 4                        ; [#uses=2 type=i32*]
  store %struct.ap_fixed_base.18* %this, %struct.ap_fixed_base.18** %1, align 8
  call void @llvm.dbg.declare(metadata !{%struct.ap_fixed_base.18** %1}, metadata !10373), !dbg !10375 ; [debug line = 2161:92] [debug variable = this]
  store i32 %i_op, i32* %2, align 4
  call void @llvm.dbg.declare(metadata !{i32* %2}, metadata !10376), !dbg !10377 ; [debug line = 2161:117] [debug variable = i_op]
  %3 = load %struct.ap_fixed_base.18** %1         ; [#uses=1 type=%struct.ap_fixed_base.18*]
  %4 = load i32* %2, align 4, !dbg !10378         ; [#uses=1 type=i32] [debug line = 2161:141]
  call void @_ZN13ap_fixed_baseILi32ELi32ELb1EL9ap_q_mode5EL9ap_o_mode3ELi0EEC2Ei(%struct.ap_fixed_base.18* %3, i32 %4), !dbg !10378 ; [debug line = 2161:141]
  ret void, !dbg !10378                           ; [debug line = 2161:141]
}

; [#uses=1]
define linkonce_odr void @_ZN13ap_fixed_baseILi32ELi32ELb1EL9ap_q_mode5EL9ap_o_mode3ELi0EEC2Ei(%struct.ap_fixed_base.18* %this, i32 %i_op) unnamed_addr nounwind uwtable inlinehint alwaysinline align 2 {
  %1 = alloca %struct.ap_fixed_base.18*, align 8  ; [#uses=2 type=%struct.ap_fixed_base.18**]
  %2 = alloca i32, align 4                        ; [#uses=2 type=i32*]
  store %struct.ap_fixed_base.18* %this, %struct.ap_fixed_base.18** %1, align 8
  call void @llvm.dbg.declare(metadata !{%struct.ap_fixed_base.18** %1}, metadata !10379), !dbg !10380 ; [debug line = 2161:92] [debug variable = this]
  store i32 %i_op, i32* %2, align 4
  call void @llvm.dbg.declare(metadata !{i32* %2}, metadata !10381), !dbg !10382 ; [debug line = 2161:117] [debug variable = i_op]
  %3 = load %struct.ap_fixed_base.18** %1         ; [#uses=2 type=%struct.ap_fixed_base.18*]
  %4 = bitcast %struct.ap_fixed_base.18* %3 to %struct.ssdm_int.19*, !dbg !10383 ; [#uses=1 type=%struct.ssdm_int.19*] [debug line = 2161:123]
  call void @_ZN8ssdm_intILi32ELb1EEC2Ev(%struct.ssdm_int.19* %4), !dbg !10383 ; [debug line = 2161:123]
  %5 = load i32* %2, align 4, !dbg !10384         ; [#uses=1 type=i32] [debug line = 2161:125]
  %6 = bitcast %struct.ap_fixed_base.18* %3 to %struct.ssdm_int.19*, !dbg !10384 ; [#uses=1 type=%struct.ssdm_int.19*] [debug line = 2161:125]
  %7 = getelementptr inbounds %struct.ssdm_int.19* %6, i32 0, i32 0, !dbg !10384 ; [#uses=1 type=i32*] [debug line = 2161:125]
  store i32 %5, i32* %7, align 4, !dbg !10384     ; [debug line = 2161:125]
  ret void, !dbg !10386                           ; [debug line = 2161:141]
}

; [#uses=2]
define linkonce_odr void @_ZN8ssdm_intILi32ELb1EEC2Ev(%struct.ssdm_int.19* %this) unnamed_addr nounwind uwtable inlinehint alwaysinline align 2 {
  %1 = alloca %struct.ssdm_int.19*, align 8       ; [#uses=2 type=%struct.ssdm_int.19**]
  store %struct.ssdm_int.19* %this, %struct.ssdm_int.19** %1, align 8
  call void @llvm.dbg.declare(metadata !{%struct.ssdm_int.19** %1}, metadata !10387), !dbg !10389 ; [debug line = 34:137] [debug variable = this]
  %2 = load %struct.ssdm_int.19** %1              ; [#uses=0 type=%struct.ssdm_int.19*]
  ret void, !dbg !10390                           ; [debug line = 34:171]
}

; [#uses=1]
define linkonce_odr void @_ZN13ap_fixed_baseILi10ELi2ELb0EL9ap_q_mode5EL9ap_o_mode3ELi0EEC2ILi32ELi32ELb1ELS0_5ELS1_3ELi0EEERKS_IXT_EXT0_EXT1_EXT2_EXT3_EXT4_EE(%struct.ap_fixed_base* %this, %struct.ap_fixed_base.18* %op) unnamed_addr nounwind uwtable align 2 {
  %1 = alloca %struct.ap_fixed_base*, align 8     ; [#uses=2 type=%struct.ap_fixed_base**]
  %2 = alloca %struct.ap_fixed_base.18*, align 8  ; [#uses=3 type=%struct.ap_fixed_base.18**]
  %carry = alloca i1, align 1                     ; [#uses=1 type=i1*]
  %sh_amt = alloca i32, align 4                   ; [#uses=3 type=i32*]
